

Microchip MPLAB XC8 Assembler V2.40 build 20220703182018 
                                                                                               Tue Aug 15 20:57:27 2023

Microchip MPLAB XC8 C Compiler v2.40 (Free license) build 20220703182018 Og1 
     1                           	processor	16F1778
     2                           	pagewidth 120
     3                           	opt	flic
     4                           	psect	cinit,global,class=CODE,merge=1,delta=2
     5                           	psect	cstackCOMMON,global,class=COMMON,space=1,delta=1,noexec
     6                           	psect	cstackBANK0,global,class=BANK0,space=1,delta=1,noexec
     7                           	psect	maintext,global,class=CODE,merge=1,split=1,delta=2
     8                           	psect	text1,local,class=CODE,merge=1,delta=2,group=1
     9                           	psect	text2,local,class=CODE,merge=1,delta=2
    10                           	psect	text3,local,class=CODE,merge=1,delta=2
    11                           	psect	text4,local,class=CODE,merge=1,delta=2,group=1
    12                           	psect	text5,local,class=CODE,merge=1,delta=2,group=1
    13                           	psect	text6,local,class=CODE,merge=1,delta=2,group=1
    14                           	psect	text7,local,class=CODE,merge=1,delta=2,group=1
    15                           	psect	text8,local,class=CODE,merge=1,delta=2,group=1
    16                           	psect	text9,local,class=CODE,merge=1,delta=2,group=1
    17                           	psect	idloc,global,abs,ovrld,class=IDLOC,space=5,delta=2,noexec
    18                           	psect	config,global,abs,ovrld,class=CONFIG,space=4,delta=2,noexec
    19                           	dabs	1,0x7E,2
    20     0000                     
    21                           ; Version 2.40
    22                           ; Generated 17/11/2021 GMT
    23                           ; 
    24                           ; Copyright © 2021, Microchip Technology Inc. and its subsidiaries ("Microchip")
    25                           ; All rights reserved.
    26                           ; 
    27                           ; This software is developed by Microchip Technology Inc. and its subsidiaries ("Microch
      +                          ip").
    28                           ; 
    29                           ; Redistribution and use in source and binary forms, with or without modification, are
    30                           ; permitted provided that the following conditions are met:
    31                           ; 
    32                           ;     1. Redistributions of source code must retain the above copyright notice, this lis
      +                          t of
    33                           ;        conditions and the following disclaimer.
    34                           ; 
    35                           ;     2. Redistributions in binary form must reproduce the above copyright notice, this 
      +                          list
    36                           ;        of conditions and the following disclaimer in the documentation and/or other
    37                           ;        materials provided with the distribution. Publication is not required when
    38                           ;        this file is used in an embedded application.
    39                           ; 
    40                           ;     3. Microchip's name may not be used to endorse or promote products derived from th
      +                          is
    41                           ;        software without specific prior written permission.
    42                           ; 
    43                           ; THIS SOFTWARE IS PROVIDED BY MICROCHIP "AS IS" AND ANY EXPRESS OR IMPLIED WARRANTIES,
    44                           ; INCLUDING, BUT NOT LIMITED TO, THE IMPLIED WARRANTIES OF MERCHANTABILITY AND FITNESS F
      +                          OR
    45                           ; PURPOSE ARE DISCLAIMED.  IN NO EVENT SHALL MICROCHIP BE LIABLE FOR ANY DIRECT, INDIREC
      +                          T,
    46                           ; INCIDENTAL, SPECIAL, EXEMPLARY, OR CONSEQUENTIAL DAMAGES (INCLUDING BUT NOT LIMITED TO
    47                           ; PROCUREMENT OF SUBSTITUTE GOODS OR SERVICES; LOSS OF USE, DATA OR PROFITS; OR BUSINESS
    48                           ; INTERRUPTION) HOWSOEVER CAUSED AND ON ANY THEORY OF LIABILITY, WHETHER IN CONTRACT, ST
      +                          RICT
    49                           ; LIABILITY, OR TORT (INCLUDING NEGLIGENCE OR OTHERWISE) ARISING IN ANY WAY OUT OF THE U
      +                          SE OF
    50                           ; THIS SOFTWARE, EVEN IF ADVISED OF THE POSSIBILITY OF SUCH DAMAGE.
    51                           ; 
    52                           ; 
    53                           ; Code-generator required, PIC16F1778 Definitions
    54                           ; 
    55                           ; SFR Addresses
    56     0000                     	;# 
    57     0001                     	;# 
    58     0002                     	;# 
    59     0003                     	;# 
    60     0004                     	;# 
    61     0005                     	;# 
    62     0006                     	;# 
    63     0007                     	;# 
    64     0008                     	;# 
    65     0009                     	;# 
    66     000A                     	;# 
    67     000B                     	;# 
    68     000C                     	;# 
    69     000D                     	;# 
    70     000E                     	;# 
    71     0010                     	;# 
    72     0011                     	;# 
    73     0012                     	;# 
    74     0013                     	;# 
    75     0014                     	;# 
    76     0015                     	;# 
    77     0016                     	;# 
    78     0017                     	;# 
    79     0018                     	;# 
    80     0018                     	;# 
    81     0019                     	;# 
    82     001A                     	;# 
    83     001B                     	;# 
    84     001C                     	;# 
    85     001C                     	;# 
    86     001D                     	;# 
    87     001E                     	;# 
    88     001F                     	;# 
    89     008C                     	;# 
    90     008D                     	;# 
    91     008E                     	;# 
    92     0090                     	;# 
    93     0091                     	;# 
    94     0092                     	;# 
    95     0093                     	;# 
    96     0094                     	;# 
    97     0095                     	;# 
    98     0096                     	;# 
    99     0097                     	;# 
   100     0098                     	;# 
   101     0099                     	;# 
   102     009A                     	;# 
   103     009B                     	;# 
   104     009C                     	;# 
   105     009D                     	;# 
   106     009E                     	;# 
   107     009F                     	;# 
   108     010C                     	;# 
   109     010D                     	;# 
   110     010E                     	;# 
   111     0111                     	;# 
   112     0112                     	;# 
   113     0113                     	;# 
   114     0114                     	;# 
   115     0115                     	;# 
   116     0116                     	;# 
   117     0117                     	;# 
   118     0118                     	;# 
   119     0119                     	;# 
   120     011A                     	;# 
   121     011B                     	;# 
   122     011C                     	;# 
   123     011D                     	;# 
   124     018C                     	;# 
   125     018D                     	;# 
   126     018E                     	;# 
   127     0191                     	;# 
   128     0191                     	;# 
   129     0192                     	;# 
   130     0193                     	;# 
   131     0193                     	;# 
   132     0194                     	;# 
   133     0195                     	;# 
   134     0196                     	;# 
   135     0197                     	;# 
   136     0199                     	;# 
   137     0199                     	;# 
   138     0199                     	;# 
   139     019A                     	;# 
   140     019A                     	;# 
   141     019A                     	;# 
   142     019B                     	;# 
   143     019B                     	;# 
   144     019B                     	;# 
   145     019B                     	;# 
   146     019B                     	;# 
   147     019C                     	;# 
   148     019C                     	;# 
   149     019C                     	;# 
   150     019D                     	;# 
   151     019D                     	;# 
   152     019D                     	;# 
   153     019E                     	;# 
   154     019E                     	;# 
   155     019E                     	;# 
   156     019F                     	;# 
   157     019F                     	;# 
   158     019F                     	;# 
   159     019F                     	;# 
   160     019F                     	;# 
   161     020C                     	;# 
   162     020D                     	;# 
   163     020E                     	;# 
   164     0210                     	;# 
   165     0211                     	;# 
   166     0211                     	;# 
   167     0212                     	;# 
   168     0212                     	;# 
   169     0213                     	;# 
   170     0213                     	;# 
   171     0214                     	;# 
   172     0214                     	;# 
   173     0215                     	;# 
   174     0215                     	;# 
   175     0215                     	;# 
   176     0215                     	;# 
   177     0216                     	;# 
   178     0216                     	;# 
   179     0217                     	;# 
   180     0217                     	;# 
   181     021B                     	;# 
   182     021C                     	;# 
   183     021D                     	;# 
   184     021E                     	;# 
   185     021F                     	;# 
   186     028C                     	;# 
   187     028D                     	;# 
   188     028E                     	;# 
   189     0291                     	;# 
   190     0291                     	;# 
   191     0292                     	;# 
   192     0293                     	;# 
   193     0294                     	;# 
   194     0295                     	;# 
   195     0295                     	;# 
   196     0296                     	;# 
   197     0297                     	;# 
   198     0298                     	;# 
   199     0299                     	;# 
   200     0299                     	;# 
   201     029A                     	;# 
   202     029B                     	;# 
   203     029C                     	;# 
   204     029E                     	;# 
   205     029F                     	;# 
   206     030C                     	;# 
   207     030D                     	;# 
   208     030E                     	;# 
   209     0315                     	;# 
   210     0316                     	;# 
   211     0317                     	;# 
   212     0318                     	;# 
   213     0319                     	;# 
   214     031B                     	;# 
   215     031C                     	;# 
   216     031D                     	;# 
   217     031E                     	;# 
   218     031F                     	;# 
   219     038C                     	;# 
   220     038D                     	;# 
   221     038E                     	;# 
   222     0390                     	;# 
   223     0391                     	;# 
   224     0392                     	;# 
   225     0393                     	;# 
   226     0394                     	;# 
   227     0395                     	;# 
   228     0396                     	;# 
   229     0397                     	;# 
   230     0398                     	;# 
   231     0399                     	;# 
   232     039D                     	;# 
   233     039E                     	;# 
   234     039F                     	;# 
   235     040D                     	;# 
   236     040F                     	;# 
   237     040F                     	;# 
   238     0410                     	;# 
   239     0411                     	;# 
   240     0412                     	;# 
   241     0413                     	;# 
   242     0413                     	;# 
   243     0414                     	;# 
   244     0414                     	;# 
   245     0415                     	;# 
   246     0416                     	;# 
   247     0417                     	;# 
   248     0418                     	;# 
   249     041A                     	;# 
   250     041A                     	;# 
   251     041B                     	;# 
   252     041B                     	;# 
   253     041C                     	;# 
   254     041D                     	;# 
   255     041E                     	;# 
   256     041F                     	;# 
   257     048E                     	;# 
   258     048E                     	;# 
   259     048F                     	;# 
   260     0490                     	;# 
   261     0491                     	;# 
   262     0492                     	;# 
   263     0493                     	;# 
   264     0493                     	;# 
   265     0494                     	;# 
   266     0494                     	;# 
   267     0495                     	;# 
   268     0496                     	;# 
   269     0497                     	;# 
   270     0498                     	;# 
   271     049A                     	;# 
   272     049A                     	;# 
   273     049B                     	;# 
   274     049B                     	;# 
   275     049C                     	;# 
   276     049D                     	;# 
   277     049E                     	;# 
   278     049F                     	;# 
   279     050F                     	;# 
   280     0510                     	;# 
   281     0511                     	;# 
   282     0512                     	;# 
   283     0513                     	;# 
   284     0514                     	;# 
   285     0515                     	;# 
   286     0516                     	;# 
   287     0517                     	;# 
   288     0518                     	;# 
   289     0519                     	;# 
   290     051A                     	;# 
   291     058D                     	;# 
   292     058E                     	;# 
   293     058F                     	;# 
   294     058F                     	;# 
   295     058F                     	;# 
   296     0590                     	;# 
   297     0590                     	;# 
   298     0591                     	;# 
   299     0592                     	;# 
   300     0592                     	;# 
   301     0592                     	;# 
   302     0593                     	;# 
   303     0593                     	;# 
   304     0594                     	;# 
   305     0595                     	;# 
   306     0595                     	;# 
   307     0596                     	;# 
   308     0597                     	;# 
   309     0597                     	;# 
   310     0598                     	;# 
   311     0599                     	;# 
   312     0599                     	;# 
   313     0599                     	;# 
   314     059A                     	;# 
   315     059A                     	;# 
   316     059E                     	;# 
   317     059F                     	;# 
   318     059F                     	;# 
   319     0614                     	;# 
   320     0614                     	;# 
   321     0615                     	;# 
   322     0616                     	;# 
   323     0617                     	;# 
   324     0617                     	;# 
   325     0618                     	;# 
   326     0619                     	;# 
   327     061A                     	;# 
   328     061A                     	;# 
   329     061B                     	;# 
   330     061C                     	;# 
   331     068D                     	;# 
   332     068E                     	;# 
   333     068F                     	;# 
   334     0690                     	;# 
   335     0691                     	;# 
   336     0692                     	;# 
   337     0693                     	;# 
   338     0694                     	;# 
   339     0695                     	;# 
   340     0696                     	;# 
   341     0697                     	;# 
   342     0698                     	;# 
   343     0699                     	;# 
   344     069A                     	;# 
   345     069B                     	;# 
   346     069C                     	;# 
   347     069D                     	;# 
   348     069E                     	;# 
   349     069F                     	;# 
   350     070D                     	;# 
   351     070E                     	;# 
   352     070F                     	;# 
   353     0710                     	;# 
   354     0711                     	;# 
   355     0712                     	;# 
   356     0713                     	;# 
   357     0714                     	;# 
   358     0715                     	;# 
   359     0716                     	;# 
   360     0717                     	;# 
   361     0718                     	;# 
   362     0719                     	;# 
   363     071A                     	;# 
   364     071B                     	;# 
   365     071C                     	;# 
   366     071D                     	;# 
   367     071E                     	;# 
   368     071F                     	;# 
   369     078E                     	;# 
   370     078F                     	;# 
   371     0790                     	;# 
   372     0791                     	;# 
   373     0792                     	;# 
   374     0793                     	;# 
   375     0794                     	;# 
   376     0795                     	;# 
   377     0796                     	;# 
   378     0797                     	;# 
   379     0798                     	;# 
   380     0799                     	;# 
   381     079A                     	;# 
   382     079B                     	;# 
   383     079C                     	;# 
   384     079D                     	;# 
   385     079E                     	;# 
   386     079F                     	;# 
   387     080D                     	;# 
   388     080E                     	;# 
   389     080F                     	;# 
   390     0810                     	;# 
   391     0811                     	;# 
   392     0812                     	;# 
   393     0813                     	;# 
   394     0814                     	;# 
   395     0815                     	;# 
   396     0816                     	;# 
   397     0817                     	;# 
   398     0818                     	;# 
   399     0819                     	;# 
   400     081A                     	;# 
   401     081B                     	;# 
   402     081C                     	;# 
   403     081D                     	;# 
   404     081E                     	;# 
   405     081F                     	;# 
   406     090C                     	;# 
   407     090D                     	;# 
   408     090E                     	;# 
   409     090F                     	;# 
   410     0910                     	;# 
   411     0911                     	;# 
   412     0912                     	;# 
   413     0913                     	;# 
   414     0914                     	;# 
   415     0915                     	;# 
   416     0916                     	;# 
   417     0917                     	;# 
   418     0D8E                     	;# 
   419     0D8F                     	;# 
   420     0D90                     	;# 
   421     0D91                     	;# 
   422     0D91                     	;# 
   423     0D92                     	;# 
   424     0D93                     	;# 
   425     0D93                     	;# 
   426     0D94                     	;# 
   427     0D95                     	;# 
   428     0D95                     	;# 
   429     0D96                     	;# 
   430     0D97                     	;# 
   431     0D97                     	;# 
   432     0D98                     	;# 
   433     0D99                     	;# 
   434     0D99                     	;# 
   435     0D9A                     	;# 
   436     0D9B                     	;# 
   437     0D9C                     	;# 
   438     0D9C                     	;# 
   439     0D9D                     	;# 
   440     0D9D                     	;# 
   441     0D9E                     	;# 
   442     0D9F                     	;# 
   443     0DA0                     	;# 
   444     0DA1                     	;# 
   445     0DA1                     	;# 
   446     0DA2                     	;# 
   447     0DA3                     	;# 
   448     0DA3                     	;# 
   449     0DA4                     	;# 
   450     0DA5                     	;# 
   451     0DA5                     	;# 
   452     0DA6                     	;# 
   453     0DA7                     	;# 
   454     0DA7                     	;# 
   455     0DA8                     	;# 
   456     0DA9                     	;# 
   457     0DA9                     	;# 
   458     0DAA                     	;# 
   459     0DAB                     	;# 
   460     0DAC                     	;# 
   461     0DAC                     	;# 
   462     0DAD                     	;# 
   463     0DAD                     	;# 
   464     0DAE                     	;# 
   465     0DAF                     	;# 
   466     0DB0                     	;# 
   467     0DB1                     	;# 
   468     0DB1                     	;# 
   469     0DB2                     	;# 
   470     0DB3                     	;# 
   471     0DB3                     	;# 
   472     0DB4                     	;# 
   473     0DB5                     	;# 
   474     0DB5                     	;# 
   475     0DB6                     	;# 
   476     0DB7                     	;# 
   477     0DB7                     	;# 
   478     0DB8                     	;# 
   479     0DB9                     	;# 
   480     0DB9                     	;# 
   481     0DBA                     	;# 
   482     0DBB                     	;# 
   483     0DBC                     	;# 
   484     0DBC                     	;# 
   485     0DBD                     	;# 
   486     0DBD                     	;# 
   487     0DBE                     	;# 
   488     0DBF                     	;# 
   489     0DC0                     	;# 
   490     0E0C                     	;# 
   491     0E0D                     	;# 
   492     0E0E                     	;# 
   493     0E0F                     	;# 
   494     0E10                     	;# 
   495     0E11                     	;# 
   496     0E12                     	;# 
   497     0E13                     	;# 
   498     0E14                     	;# 
   499     0E15                     	;# 
   500     0E15                     	;# 
   501     0E15                     	;# 
   502     0E16                     	;# 
   503     0E16                     	;# 
   504     0E16                     	;# 
   505     0E17                     	;# 
   506     0E17                     	;# 
   507     0E17                     	;# 
   508     0E18                     	;# 
   509     0E18                     	;# 
   510     0E18                     	;# 
   511     0E19                     	;# 
   512     0E1A                     	;# 
   513     0E1B                     	;# 
   514     0E1D                     	;# 
   515     0E1E                     	;# 
   516     0E1F                     	;# 
   517     0E21                     	;# 
   518     0E22                     	;# 
   519     0E23                     	;# 
   520     0E24                     	;# 
   521     0E25                     	;# 
   522     0E26                     	;# 
   523     0E27                     	;# 
   524     0E28                     	;# 
   525     0E29                     	;# 
   526     0E2D                     	;# 
   527     0E2E                     	;# 
   528     0E2F                     	;# 
   529     0E30                     	;# 
   530     0E31                     	;# 
   531     0E32                     	;# 
   532     0E35                     	;# 
   533     0E36                     	;# 
   534     0E37                     	;# 
   535     0E38                     	;# 
   536     0E39                     	;# 
   537     0E3A                     	;# 
   538     0E3B                     	;# 
   539     0E3C                     	;# 
   540     0E3D                     	;# 
   541     0E3E                     	;# 
   542     0E90                     	;# 
   543     0E91                     	;# 
   544     0E92                     	;# 
   545     0E93                     	;# 
   546     0E94                     	;# 
   547     0E95                     	;# 
   548     0E96                     	;# 
   549     0E97                     	;# 
   550     0E98                     	;# 
   551     0E99                     	;# 
   552     0E9A                     	;# 
   553     0E9B                     	;# 
   554     0E9C                     	;# 
   555     0E9D                     	;# 
   556     0E9E                     	;# 
   557     0E9F                     	;# 
   558     0EA0                     	;# 
   559     0EA1                     	;# 
   560     0EA2                     	;# 
   561     0EA3                     	;# 
   562     0EA4                     	;# 
   563     0EA5                     	;# 
   564     0EA6                     	;# 
   565     0EA7                     	;# 
   566     0F0F                     	;# 
   567     0F10                     	;# 
   568     0F11                     	;# 
   569     0F12                     	;# 
   570     0F13                     	;# 
   571     0F14                     	;# 
   572     0F15                     	;# 
   573     0F16                     	;# 
   574     0F17                     	;# 
   575     0F18                     	;# 
   576     0F19                     	;# 
   577     0F1A                     	;# 
   578     0F1B                     	;# 
   579     0F1C                     	;# 
   580     0F1D                     	;# 
   581     0F1E                     	;# 
   582     0F1F                     	;# 
   583     0F20                     	;# 
   584     0F21                     	;# 
   585     0F22                     	;# 
   586     0F23                     	;# 
   587     0F24                     	;# 
   588     0F25                     	;# 
   589     0F26                     	;# 
   590     0F27                     	;# 
   591     0F28                     	;# 
   592     0F29                     	;# 
   593     0F2A                     	;# 
   594     0F2B                     	;# 
   595     0F2C                     	;# 
   596     0F2D                     	;# 
   597     0F2E                     	;# 
   598     0F2F                     	;# 
   599     0F30                     	;# 
   600     0F31                     	;# 
   601     0F32                     	;# 
   602     0F33                     	;# 
   603     0F34                     	;# 
   604     0F35                     	;# 
   605     0F36                     	;# 
   606     0F37                     	;# 
   607     0FE4                     	;# 
   608     0FE5                     	;# 
   609     0FE6                     	;# 
   610     0FE7                     	;# 
   611     0FE8                     	;# 
   612     0FE9                     	;# 
   613     0FEA                     	;# 
   614     0FEB                     	;# 
   615     0FED                     	;# 
   616     0FEE                     	;# 
   617     0FEF                     	;# 
   618     000C                     _PORTAbits	set	12
   619     0097                     _OPTION_REGbits	set	151
   620     008E                     _TRISC	set	142
   621     008D                     _TRISB	set	141
   622     008C                     _TRISA	set	140
   623     009B                     _OSCCON	set	155
   624     010E                     _LATCbits	set	270
   625     010C                     _LATAbits	set	268
   626     010E                     _LATC	set	270
   627     010D                     _LATB	set	269
   628     010C                     _LATA	set	268
   629     018E                     _ANSELC	set	398
   630     018D                     _ANSELB	set	397
   631     018C                     _ANSELA	set	396
   632     020E                     _WPUC	set	526
   633     020D                     _WPUB	set	525
   634     020C                     _WPUA	set	524
   635     0291                     _CCPR1L	set	657
   636     0292                     _CCPR1H	set	658
   637     029E                     _CCPTMRS1bits	set	670
   638     0293                     _CCP1CON	set	659
   639     029F                     _CCPTMRS2bits	set	671
   640     0494                     _T2PR	set	1172
   641     0495                     _T2CON	set	1173
   642     0497                     _T2CLKCONbits	set	1175
   643     061A                     _PWM9DCL	set	1562
   644     061B                     _PWM9DCH	set	1563
   645     061C                     _PWM9CON	set	1564
   646     0617                     _PWM4DCL	set	1559
   647     0618                     _PWM4DCH	set	1560
   648     0619                     _PWM4CON	set	1561
   649     0614                     _PWM3DCL	set	1556
   650     0615                     _PWM3DCH	set	1557
   651     0616                     _PWM3CON	set	1558
   652     0DAF                     _PWM6LDCONbits	set	3503
   653     0D9F                     _PWM5LDCONbits	set	3487
   654     0DA9                     _PWM6TMRL	set	3497
   655     0DAA                     _PWM6TMRH	set	3498
   656     0DA7                     _PWM6OFL	set	3495
   657     0DA8                     _PWM6OFH	set	3496
   658     0DA5                     _PWM6PRL	set	3493
   659     0DA6                     _PWM6PRH	set	3494
   660     0DA3                     _PWM6DCL	set	3491
   661     0DA4                     _PWM6DCH	set	3492
   662     0DA1                     _PWM6PHL	set	3489
   663     0DA2                     _PWM6PHH	set	3490
   664     0DB0                     _PWM6OFCON	set	3504
   665     0DAF                     _PWM6LDCON	set	3503
   666     0DAE                     _PWM6CLKCON	set	3502
   667     0DAB                     _PWM6CON	set	3499
   668     0D99                     _PWM5TMRL	set	3481
   669     0D9A                     _PWM5TMRH	set	3482
   670     0D97                     _PWM5OFL	set	3479
   671     0D98                     _PWM5OFH	set	3480
   672     0D95                     _PWM5PRL	set	3477
   673     0D96                     _PWM5PRH	set	3478
   674     0D93                     _PWM5DCL	set	3475
   675     0D94                     _PWM5DCH	set	3476
   676     0D91                     _PWM5PHL	set	3473
   677     0D92                     _PWM5PHH	set	3474
   678     0DA0                     _PWM5OFCON	set	3488
   679     0D9F                     _PWM5LDCON	set	3487
   680     0D9E                     _PWM5CLKCON	set	3486
   681     0D9B                     _PWM5CON	set	3483
   682     0EA2                     _RC2PPS	set	3746
   683     0EA0                     _RC0PPS	set	3744
   684     0E96                     _RA6PPS	set	3734
   685     0E94                     _RA4PPS	set	3732
   686     0EA4                     _RC4PPS	set	3748
   687     0EA5                     _RC5PPS	set	3749
   688     0EA3                     _RC3PPS	set	3747
   689     0EA1                     _RC1PPS	set	3745
   690     0E97                     _RA7PPS	set	3735
   691     0E95                     _RA5PPS	set	3733
   692                           
   693                           	psect	cinit
   694     07FD                     start_initialization:	
   695                           ; #config settings
   696                           
   697     07FD                     __initialization:
   698     07FD                     end_of_initialization:	
   699                           ;End of C runtime variable initialization code
   700                           
   701     07FD                     __end_of__initialization:
   702     07FD  0020               	movlb	0
   703     07FE  3180  28DE         	ljmp	_main	;jump to C main() function
   704                           
   705                           	psect	cstackCOMMON
   706     0070                     __pcstackCOMMON:
   707     0070                     ?___flge:
   708     0070                     ?_main:	
   709                           ; 1 bit 
   710                           
   711     0070                     ?__Umul8_16:	
   712                           ; 1 bytes @ 0x0
   713                           
   714     0070                     ?___fltol:	
   715                           ; 2 bytes @ 0x0
   716                           
   717     0070                     ?___fldiv:	
   718                           ; 4 bytes @ 0x0
   719                           
   720     0070                     ?___xxtofl:	
   721                           ; 4 bytes @ 0x0
   722                           
   723     0070                     __Umul8_16@multiplicand:	
   724                           ; 4 bytes @ 0x0
   725                           
   726     0070                     ___flge@ff1:	
   727                           ; 1 bytes @ 0x0
   728                           
   729     0070                     ___fltol@f1:	
   730                           ; 4 bytes @ 0x0
   731                           
   732     0070                     ___fldiv@a:	
   733                           ; 4 bytes @ 0x0
   734                           
   735     0070                     ___xxtofl@val:	
   736                           ; 4 bytes @ 0x0
   737                           
   738                           
   739                           ; 4 bytes @ 0x0
   740     0070                     	ds	2
   741     0072                     ??__Umul8_16:
   742                           
   743                           ; 1 bytes @ 0x2
   744     0072                     	ds	2
   745     0074                     ??___fltol:
   746     0074                     ??___xxtofl:	
   747                           ; 1 bytes @ 0x4
   748                           
   749     0074                     __Umul8_16@product:	
   750                           ; 1 bytes @ 0x4
   751                           
   752     0074                     ___flge@ff2:	
   753                           ; 2 bytes @ 0x4
   754                           
   755     0074                     ___fldiv@b:	
   756                           ; 4 bytes @ 0x4
   757                           
   758                           
   759                           ; 4 bytes @ 0x4
   760     0074                     	ds	2
   761     0076                     __Umul8_16@word_mpld:
   762                           
   763                           ; 2 bytes @ 0x6
   764     0076                     	ds	2
   765     0078                     ??___flge:
   766     0078                     ??___fldiv:	
   767                           ; 1 bytes @ 0x8
   768                           
   769     0078                     ___fltol@sign1:	
   770                           ; 1 bytes @ 0x8
   771                           
   772     0078                     __Umul8_16@multiplier:	
   773                           ; 1 bytes @ 0x8
   774                           
   775     0078                     ___xxtofl@sign:	
   776                           ; 1 bytes @ 0x8
   777                           
   778                           
   779                           ; 1 bytes @ 0x8
   780     0078                     	ds	1
   781     0079                     ___fltol@exp1:
   782     0079                     ___xxtofl@exp:	
   783                           ; 1 bytes @ 0x9
   784                           
   785                           
   786                           ; 1 bytes @ 0x9
   787     0079                     	ds	1
   788     007A                     ___xxtofl@arg:
   789                           
   790                           ; 4 bytes @ 0xA
   791     007A                     	ds	4
   792     007E                     ??_Servo5:
   793     007E                     ??_Servo12:	
   794                           ; 1 bytes @ 0xE
   795                           
   796                           
   797                           	psect	cstackBANK0
   798     0020                     __pcstackBANK0:	
   799                           ; 1 bytes @ 0xE
   800                           
   801     0020                     ___fldiv@rem:
   802                           
   803                           ; 4 bytes @ 0x0
   804     0020                     	ds	4
   805     0024                     ___fldiv@sign:
   806                           
   807                           ; 1 bytes @ 0x4
   808     0024                     	ds	1
   809     0025                     ___fldiv@new_exp:
   810                           
   811                           ; 2 bytes @ 0x5
   812     0025                     	ds	2
   813     0027                     ___fldiv@grs:
   814                           
   815                           ; 4 bytes @ 0x7
   816     0027                     	ds	4
   817     002B                     ___fldiv@bexp:
   818                           
   819                           ; 1 bytes @ 0xB
   820     002B                     	ds	1
   821     002C                     ___fldiv@aexp:
   822                           
   823                           ; 1 bytes @ 0xC
   824     002C                     	ds	1
   825     002D                     ?___flmul:
   826     002D                     ___flmul@b:	
   827                           ; 4 bytes @ 0xD
   828                           
   829                           
   830                           ; 4 bytes @ 0xD
   831     002D                     	ds	4
   832     0031                     ___flmul@a:
   833                           
   834                           ; 4 bytes @ 0x11
   835     0031                     	ds	4
   836     0035                     ??___flmul:
   837                           
   838                           ; 1 bytes @ 0x15
   839     0035                     	ds	5
   840     003A                     ___flmul@sign:
   841                           
   842                           ; 1 bytes @ 0x1A
   843     003A                     	ds	1
   844     003B                     ___flmul@grs:
   845                           
   846                           ; 4 bytes @ 0x1B
   847     003B                     	ds	4
   848     003F                     ___flmul@aexp:
   849                           
   850                           ; 1 bytes @ 0x1F
   851     003F                     	ds	1
   852     0040                     ___flmul@bexp:
   853                           
   854                           ; 1 bytes @ 0x20
   855     0040                     	ds	1
   856     0041                     ___flmul@prod:
   857                           
   858                           ; 4 bytes @ 0x21
   859     0041                     	ds	4
   860     0045                     ___flmul@temp:
   861                           
   862                           ; 2 bytes @ 0x25
   863     0045                     	ds	2
   864     0047                     ?___fladd:
   865     0047                     ___fladd@b:	
   866                           ; 4 bytes @ 0x27
   867                           
   868                           
   869                           ; 4 bytes @ 0x27
   870     0047                     	ds	4
   871     004B                     ___fladd@a:
   872                           
   873                           ; 4 bytes @ 0x2B
   874     004B                     	ds	4
   875     004F                     ??___fladd:
   876                           
   877                           ; 1 bytes @ 0x2F
   878     004F                     	ds	8
   879     0057                     ___fladd@signs:
   880                           
   881                           ; 1 bytes @ 0x37
   882     0057                     	ds	1
   883     0058                     ___fladd@aexp:
   884                           
   885                           ; 1 bytes @ 0x38
   886     0058                     	ds	1
   887     0059                     ___fladd@bexp:
   888                           
   889                           ; 1 bytes @ 0x39
   890     0059                     	ds	1
   891     005A                     ___fladd@grs:
   892                           
   893                           ; 1 bytes @ 0x3A
   894     005A                     	ds	1
   895     005B                     ?_Servo5:
   896     005B                     ?_Servo12:	
   897                           ; 1 bytes @ 0x3B
   898                           
   899     005B                     Servo5@angle:	
   900                           ; 1 bytes @ 0x3B
   901                           
   902     005B                     Servo12@angle:	
   903                           ; 4 bytes @ 0x3B
   904                           
   905                           
   906                           ; 4 bytes @ 0x3B
   907     005B                     	ds	4
   908     005F                     Servo5@duty:
   909     005F                     Servo12@duty:	
   910                           ; 4 bytes @ 0x3F
   911                           
   912                           
   913                           ; 4 bytes @ 0x3F
   914     005F                     	ds	4
   915     0063                     ??_main:
   916                           
   917                           ; 1 bytes @ 0x43
   918     0063                     	ds	2
   919     0065                     main@i:
   920                           
   921                           ; 2 bytes @ 0x45
   922     0065                     	ds	2
   923     0067                     main@i_379:
   924                           
   925                           ; 2 bytes @ 0x47
   926     0067                     	ds	2
   927                           
   928                           	psect	maintext
   929     00DE                     __pmaintext:	
   930 ;;
   931 ;;Main: autosize = 0, tempsize = 2, incstack = 0, save=0
   932 ;;
   933 ;; *************** function _main *****************
   934 ;; Defined at:
   935 ;;		line 51 in file "main.c"
   936 ;; Parameters:    Size  Location     Type
   937 ;;		None
   938 ;; Auto vars:     Size  Location     Type
   939 ;;  i               2   71[BANK0 ] int 
   940 ;;  i               2   69[BANK0 ] int 
   941 ;; Return value:  Size  Location     Type
   942 ;;                  1    wreg      void 
   943 ;; Registers used:
   944 ;;		wreg, status,2, status,0, pclath, cstack
   945 ;; Tracked objects:
   946 ;;		On entry : B1F/0
   947 ;;		On exit  : 0/0
   948 ;;		Unchanged: 0/0
   949 ;; Data sizes:     COMMON   BANK0   BANK1   BANK2   BANK3   BANK4   BANK5   BANK6   BANK7   BANK8   BANK9  BANK10  BANK1
      +1  BANK12  BANK13  BANK14  BANK15  BANK16  BANK17  BANK18  BANK19  BANK20  BANK21  BANK22  BANK23  BANK24  BANK25
   950 ;;      Params:         0       0       0       0       0       0       0       0       0       0       0       0       
      +0       0       0       0       0       0       0       0       0       0       0       0       0       0       0
   951 ;;      Locals:         0       4       0       0       0       0       0       0       0       0       0       0       
      +0       0       0       0       0       0       0       0       0       0       0       0       0       0       0
   952 ;;      Temps:          0       2       0       0       0       0       0       0       0       0       0       0       
      +0       0       0       0       0       0       0       0       0       0       0       0       0       0       0
   953 ;;      Totals:         0       6       0       0       0       0       0       0       0       0       0       0       
      +0       0       0       0       0       0       0       0       0       0       0       0       0       0       0
   954 ;;Total ram usage:        6 bytes
   955 ;; Hardware stack levels required when called: 3
   956 ;; This function calls:
   957 ;;		_Servo12
   958 ;;		_Servo5
   959 ;;		___xxtofl
   960 ;; This function is called by:
   961 ;;		Startup code after reset
   962 ;; This function uses a non-reentrant model
   963 ;;
   964                           
   965     00DE                     _main:	
   966                           ;psect for function _main
   967                           
   968     00DE                     l2340:	
   969                           ;incstack = 0
   970                           ; Regs used in _main: [wreg+status,2+status,0+pclath+cstack]
   971                           
   972                           
   973                           ;main.c: 53:     OSCCON = 0b11110000;
   974     00DE  30F0               	movlw	240
   975     00DF  0021               	movlb	1	; select bank1
   976     00E0  009B               	movwf	27	;volatile
   977     00E1                     l2342:
   978                           
   979                           ;main.c: 56:     ANSELA = 0x00;
   980     00E1  0023               	movlb	3	; select bank3
   981     00E2  018C               	clrf	12	;volatile
   982     00E3                     l2344:
   983                           
   984                           ;main.c: 57:     ANSELB = 0b00001111;
   985     00E3  300F               	movlw	15
   986     00E4  008D               	movwf	13	;volatile
   987                           
   988                           ;main.c: 58:     ANSELC = 0x00;
   989     00E5  018E               	clrf	14	;volatile
   990     00E6                     l2346:
   991                           
   992                           ;main.c: 59:     TRISA = 0b00001111;
   993     00E6  300F               	movlw	15
   994     00E7  0021               	movlb	1	; select bank1
   995     00E8  008C               	movwf	12	;volatile
   996     00E9                     l2348:
   997                           
   998                           ;main.c: 60:     TRISB = 0b00101111;
   999     00E9  302F               	movlw	47
  1000     00EA  008D               	movwf	13	;volatile
  1001                           
  1002                           ;main.c: 61:     TRISC = 0x00;
  1003     00EB  018E               	clrf	14	;volatile
  1004                           
  1005                           ;main.c: 62:     LATA = 0x00;
  1006     00EC  0022               	movlb	2	; select bank2
  1007     00ED  018C               	clrf	12	;volatile
  1008                           
  1009                           ;main.c: 63:     LATB = 0x00;
  1010     00EE  018D               	clrf	13	;volatile
  1011                           
  1012                           ;main.c: 64:     LATC = 0x00;
  1013     00EF  018E               	clrf	14	;volatile
  1014     00F0                     l2350:
  1015                           
  1016                           ;main.c: 67:     OPTION_REGbits.nWPUEN = 0;
  1017     00F0  0021               	movlb	1	; select bank1
  1018     00F1  1397               	bcf	23,7	;volatile
  1019     00F2                     l2352:
  1020                           
  1021                           ;main.c: 68:     WPUA = 0b00001111;
  1022     00F2  300F               	movlw	15
  1023     00F3  0024               	movlb	4	; select bank4
  1024     00F4  008C               	movwf	12	;volatile
  1025     00F5                     l2354:
  1026                           
  1027                           ;main.c: 69:     WPUB = 0x00;
  1028     00F5  018D               	clrf	13	;volatile
  1029     00F6                     l2356:
  1030                           
  1031                           ;main.c: 70:     WPUC = 0x00;
  1032     00F6  018E               	clrf	14	;volatile
  1033     00F7                     l2358:
  1034                           
  1035                           ;main.c: 73:     T2CLKCONbits.CS = 0b0001;
  1036     00F7  0029               	movlb	9	; select bank9
  1037     00F8  0817               	movf	23,w	;volatile
  1038     00F9  39F0               	andlw	-16
  1039     00FA  3801               	iorlw	1
  1040     00FB  0097               	movwf	23	;volatile
  1041     00FC                     l2360:
  1042                           
  1043                           ;main.c: 74:     T2CON = 0b10000000;
  1044     00FC  3080               	movlw	128
  1045     00FD  0095               	movwf	21	;volatile
  1046     00FE                     l2362:
  1047                           
  1048                           ;main.c: 75:     T2PR = 0xFF;
  1049     00FE  30FF               	movlw	255
  1050     00FF  0094               	movwf	20	;volatile
  1051     0100                     l2364:
  1052                           
  1053                           ;main.c: 78:     RA5PPS = 0b011001;
  1054     0100  3019               	movlw	25
  1055     0101  003D               	movlb	29	; select bank29
  1056     0102  0095               	movwf	21	;volatile
  1057     0103                     l2366:
  1058                           
  1059                           ;main.c: 79:     PWM3CON = 0b10000000;
  1060     0103  3080               	movlw	128
  1061     0104  002C               	movlb	12	; select bank12
  1062     0105  0096               	movwf	22	;volatile
  1063     0106                     l2368:
  1064                           
  1065                           ;main.c: 80:     CCPTMRS2bits.P3TSEL = 0b00;
  1066     0106  30FC               	movlw	-4
  1067     0107  0025               	movlb	5	; select bank5
  1068     0108  059F               	andwf	31,f	;volatile
  1069     0109                     l2370:
  1070                           
  1071                           ;main.c: 81:     PWM3DCH = 0x00;
  1072     0109  002C               	movlb	12	; select bank12
  1073     010A  0195               	clrf	21	;volatile
  1074     010B                     l2372:
  1075                           
  1076                           ;main.c: 82:     PWM3DCL = 0x00;
  1077     010B  0194               	clrf	20	;volatile
  1078     010C                     l2374:
  1079                           
  1080                           ;main.c: 85:     RA7PPS = 0b011010;
  1081     010C  301A               	movlw	26
  1082     010D  003D               	movlb	29	; select bank29
  1083     010E  0097               	movwf	23	;volatile
  1084     010F                     l2376:
  1085                           
  1086                           ;main.c: 86:     PWM4CON = 0b10000000;
  1087     010F  3080               	movlw	128
  1088     0110  002C               	movlb	12	; select bank12
  1089     0111  0099               	movwf	25	;volatile
  1090     0112                     l2378:
  1091                           
  1092                           ;main.c: 87:     CCPTMRS2bits.P4TSEL = 0b00;
  1093     0112  30F3               	movlw	-13
  1094     0113  0025               	movlb	5	; select bank5
  1095     0114  059F               	andwf	31,f	;volatile
  1096     0115                     l2380:
  1097                           
  1098                           ;main.c: 88:     PWM4DCH = 0x00;
  1099     0115  002C               	movlb	12	; select bank12
  1100     0116  0198               	clrf	24	;volatile
  1101     0117                     l2382:
  1102                           
  1103                           ;main.c: 89:     PWM4DCL = 0x00;
  1104     0117  0197               	clrf	23	;volatile
  1105     0118                     l2384:
  1106                           
  1107                           ;main.c: 92:     RC1PPS = 0b011011;
  1108     0118  301B               	movlw	27
  1109     0119  003D               	movlb	29	; select bank29
  1110     011A  00A1               	movwf	33	;volatile
  1111     011B                     l2386:
  1112                           
  1113                           ;main.c: 93:     PWM9CON = 0b10000000;
  1114     011B  3080               	movlw	128
  1115     011C  002C               	movlb	12	; select bank12
  1116     011D  009C               	movwf	28	;volatile
  1117     011E                     l2388:
  1118                           
  1119                           ;main.c: 94:     CCPTMRS2bits.P9TSEL = 0b00;
  1120     011E  30CF               	movlw	-49
  1121     011F  0025               	movlb	5	; select bank5
  1122     0120  059F               	andwf	31,f	;volatile
  1123     0121                     l2390:
  1124                           
  1125                           ;main.c: 95:     PWM9DCH = 0x00;
  1126     0121  002C               	movlb	12	; select bank12
  1127     0122  019B               	clrf	27	;volatile
  1128     0123                     l2392:
  1129                           
  1130                           ;main.c: 96:     PWM9DCL = 0x00;
  1131     0123  019A               	clrf	26	;volatile
  1132     0124                     l2394:
  1133                           
  1134                           ;main.c: 99:     RC3PPS = 0b010101;
  1135     0124  3015               	movlw	21
  1136     0125  003D               	movlb	29	; select bank29
  1137     0126  00A3               	movwf	35	;volatile
  1138     0127                     l2396:
  1139                           
  1140                           ;main.c: 100:     CCP1CON = 0b10011100;
  1141     0127  309C               	movlw	156
  1142     0128  0025               	movlb	5	; select bank5
  1143     0129  0093               	movwf	19	;volatile
  1144     012A                     l2398:
  1145                           
  1146                           ;main.c: 101:     CCPTMRS1bits.C1TSEL = 0b00;
  1147     012A  30FC               	movlw	-4
  1148     012B  059E               	andwf	30,f	;volatile
  1149     012C                     l2400:
  1150                           
  1151                           ;main.c: 102:     CCPR1H = 0x00;
  1152     012C  0192               	clrf	18	;volatile
  1153     012D                     l2402:
  1154                           
  1155                           ;main.c: 103:     CCPR1L = 0x00;
  1156     012D  0191               	clrf	17	;volatile
  1157     012E                     l2404:
  1158                           
  1159                           ;main.c: 106:     RC5PPS = 0b011101;
  1160     012E  301D               	movlw	29
  1161     012F  003D               	movlb	29	; select bank29
  1162     0130  00A5               	movwf	37	;volatile
  1163     0131                     l2406:
  1164                           
  1165                           ;main.c: 107:     PWM5CON = 0b10000000;
  1166     0131  3080               	movlw	128
  1167     0132  003B               	movlb	27	; select bank27
  1168     0133  009B               	movwf	27	;volatile
  1169     0134                     l2408:
  1170                           
  1171                           ;main.c: 108:     PWM5CLKCON = 0b01000000;
  1172     0134  3040               	movlw	64
  1173     0135  009E               	movwf	30	;volatile
  1174     0136                     l2410:
  1175                           
  1176                           ;main.c: 109:     PWM5LDCON = 0x00;
  1177     0136  019F               	clrf	31	;volatile
  1178     0137                     l2412:
  1179                           
  1180                           ;main.c: 110:     PWM5OFCON = 0x00;
  1181     0137  01A0               	clrf	32	;volatile
  1182     0138                     l2414:
  1183                           
  1184                           ;main.c: 111:     PWM5PHH = 0x00;
  1185     0138  0192               	clrf	18	;volatile
  1186     0139                     l2416:
  1187                           
  1188                           ;main.c: 112:     PWM5PHL = 0x00;
  1189     0139  0191               	clrf	17	;volatile
  1190     013A                     l2418:
  1191                           
  1192                           ;main.c: 113:     PWM5DCH = (2899 >> 8) & 0x00FF;
  1193     013A  300B               	movlw	11
  1194     013B  0094               	movwf	20	;volatile
  1195     013C                     l2420:
  1196                           
  1197                           ;main.c: 114:     PWM5DCL = 2899 & 0x00FF;
  1198     013C  3053               	movlw	83
  1199     013D  0093               	movwf	19	;volatile
  1200     013E                     l2422:
  1201                           
  1202                           ;main.c: 115:     PWM5PRH = (39999 >> 8) & 0x00FF;
  1203     013E  309C               	movlw	156
  1204     013F  0096               	movwf	22	;volatile
  1205     0140                     l2424:
  1206                           
  1207                           ;main.c: 116:     PWM5PRL = 39999 & 0x00FF;
  1208     0140  303F               	movlw	63
  1209     0141  0095               	movwf	21	;volatile
  1210     0142                     l2426:
  1211                           
  1212                           ;main.c: 117:     PWM5OFH = 0x00;
  1213     0142  0198               	clrf	24	;volatile
  1214     0143                     l2428:
  1215                           
  1216                           ;main.c: 118:     PWM5OFL = 0x00;
  1217     0143  0197               	clrf	23	;volatile
  1218     0144                     l2430:
  1219                           
  1220                           ;main.c: 119:     PWM5TMRH = 0x00;
  1221     0144  019A               	clrf	26	;volatile
  1222     0145                     l2432:
  1223                           
  1224                           ;main.c: 120:     PWM5TMRL = 0x00;
  1225     0145  0199               	clrf	25	;volatile
  1226     0146                     l2434:
  1227                           
  1228                           ;main.c: 123:     _delay((unsigned long)((500)*(32000000/4000.0)));
  1229     0146  3015               	movlw	21
  1230     0147  0020               	movlb	0	; select bank0
  1231     0148  00E4               	movwf	??_main+1
  1232     0149  304B               	movlw	75
  1233     014A  00E3               	movwf	??_main
  1234     014B  30BE               	movlw	190
  1235     014C                     u2897:
  1236     014C  0B89               	decfsz	9,f
  1237     014D  294C               	goto	u2897
  1238     014E  0BE3               	decfsz	??_main,f
  1239     014F  294C               	goto	u2897
  1240     0150  0BE4               	decfsz	??_main+1,f
  1241     0151  294C               	goto	u2897
  1242     0152  0000               	nop
  1243     0153                     l2436:
  1244                           
  1245                           ;main.c: 124:     RC4PPS = 0b011110;
  1246     0153  301E               	movlw	30
  1247     0154  003D               	movlb	29	; select bank29
  1248     0155  00A4               	movwf	36	;volatile
  1249     0156                     l2438:
  1250                           
  1251                           ;main.c: 125:     PWM6CON = 0b10000000;
  1252     0156  3080               	movlw	128
  1253     0157  003B               	movlb	27	; select bank27
  1254     0158  00AB               	movwf	43	;volatile
  1255     0159                     l2440:
  1256                           
  1257                           ;main.c: 126:     PWM6CLKCON = 0b01000000;
  1258     0159  3040               	movlw	64
  1259     015A  00AE               	movwf	46	;volatile
  1260     015B                     l2442:
  1261                           
  1262                           ;main.c: 127:     PWM6LDCON = 0x00;
  1263     015B  01AF               	clrf	47	;volatile
  1264     015C                     l2444:
  1265                           
  1266                           ;main.c: 128:     PWM6OFCON = 0x00;
  1267     015C  01B0               	clrf	48	;volatile
  1268     015D                     l2446:
  1269                           
  1270                           ;main.c: 129:     PWM6PHH = 0x00;
  1271     015D  01A2               	clrf	34	;volatile
  1272     015E                     l2448:
  1273                           
  1274                           ;main.c: 130:     PWM6PHL = 0x00;
  1275     015E  01A1               	clrf	33	;volatile
  1276     015F                     l2450:
  1277                           
  1278                           ;main.c: 131:     PWM6DCH = (2999 >> 8) & 0x00FF;
  1279     015F  300B               	movlw	11
  1280     0160  00A4               	movwf	36	;volatile
  1281     0161                     l2452:
  1282                           
  1283                           ;main.c: 132:     PWM6DCL = 2999 & 0x00FF;
  1284     0161  30B7               	movlw	183
  1285     0162  00A3               	movwf	35	;volatile
  1286     0163                     l2454:
  1287                           
  1288                           ;main.c: 133:     PWM6PRH = (39999 >> 8) & 0x00FF;
  1289     0163  309C               	movlw	156
  1290     0164  00A6               	movwf	38	;volatile
  1291     0165                     l2456:
  1292                           
  1293                           ;main.c: 134:     PWM6PRL = 39999 & 0x00FF;
  1294     0165  303F               	movlw	63
  1295     0166  00A5               	movwf	37	;volatile
  1296     0167                     l2458:
  1297                           
  1298                           ;main.c: 135:     PWM6OFH = 0x00;
  1299     0167  01A8               	clrf	40	;volatile
  1300     0168                     l2460:
  1301                           
  1302                           ;main.c: 136:     PWM6OFL = 0x00;
  1303     0168  01A7               	clrf	39	;volatile
  1304     0169                     l2462:
  1305                           
  1306                           ;main.c: 137:     PWM6TMRH = 0x00;
  1307     0169  01AA               	clrf	42	;volatile
  1308     016A                     l2464:
  1309                           
  1310                           ;main.c: 138:     PWM6TMRL = 0x00;
  1311     016A  01A9               	clrf	41	;volatile
  1312     016B                     l2466:
  1313                           
  1314                           ;main.c: 177:         for(int i = 0; i <= 270; i++){
  1315     016B  0020               	movlb	0	; select bank0
  1316     016C  01E5               	clrf	main@i
  1317     016D  01E6               	clrf	main@i+1
  1318     016E                     l2472:
  1319                           
  1320                           ;main.c: 178:             Servo5(i);
  1321     016E  0020               	movlb	0	; select bank0
  1322     016F  0865               	movf	main@i,w
  1323     0170  00F0               	movwf	___xxtofl@val
  1324     0171  0866               	movf	main@i+1,w
  1325     0172  00F1               	movwf	___xxtofl@val+1
  1326     0173  0D89               	rlf	9,f
  1327     0174  3B89               	subwfb	9,f
  1328     0175  0989               	comf	9,f
  1329     0176  00F2               	movwf	___xxtofl@val+2
  1330     0177  00F3               	movwf	___xxtofl@val+3
  1331     0178  3001               	movlw	1
  1332     0179  3180  2034  3180   	fcall	___xxtofl
  1333     017C  0873               	movf	?___xxtofl+3,w
  1334     017D  0020               	movlb	0	; select bank0
  1335     017E  00DE               	movwf	Servo5@angle+3
  1336     017F  0872               	movf	?___xxtofl+2,w
  1337     0180  00DD               	movwf	Servo5@angle+2
  1338     0181  0871               	movf	?___xxtofl+1,w
  1339     0182  00DC               	movwf	Servo5@angle+1
  1340     0183  0870               	movf	?___xxtofl,w
  1341     0184  00DB               	movwf	Servo5@angle
  1342     0185  318F  275A  3180   	fcall	_Servo5
  1343                           
  1344                           ;main.c: 179:             Servo12(i);
  1345     0188  0020               	movlb	0	; select bank0
  1346     0189  0865               	movf	main@i,w
  1347     018A  00F0               	movwf	___xxtofl@val
  1348     018B  0866               	movf	main@i+1,w
  1349     018C  00F1               	movwf	___xxtofl@val+1
  1350     018D  0D89               	rlf	9,f
  1351     018E  3B89               	subwfb	9,f
  1352     018F  0989               	comf	9,f
  1353     0190  00F2               	movwf	___xxtofl@val+2
  1354     0191  00F3               	movwf	___xxtofl@val+3
  1355     0192  3001               	movlw	1
  1356     0193  3180  2034  3180   	fcall	___xxtofl
  1357     0196  0873               	movf	?___xxtofl+3,w
  1358     0197  0020               	movlb	0	; select bank0
  1359     0198  00DE               	movwf	Servo12@angle+3
  1360     0199  0872               	movf	?___xxtofl+2,w
  1361     019A  00DD               	movwf	Servo12@angle+2
  1362     019B  0871               	movf	?___xxtofl+1,w
  1363     019C  00DC               	movwf	Servo12@angle+1
  1364     019D  0870               	movf	?___xxtofl,w
  1365     019E  00DB               	movwf	Servo12@angle
  1366     019F  318E  26B4  3180   	fcall	_Servo12
  1367     01A2                     l2474:
  1368                           
  1369                           ;main.c: 180:             _delay((unsigned long)((100)*(32000000/4000.0)));
  1370     01A2  3005               	movlw	5
  1371     01A3  0020               	movlb	0	; select bank0
  1372     01A4  00E4               	movwf	??_main+1
  1373     01A5  300F               	movlw	15
  1374     01A6  00E3               	movwf	??_main
  1375     01A7  30F1               	movlw	241
  1376     01A8                     u2907:
  1377     01A8  0B89               	decfsz	9,f
  1378     01A9  29A8               	goto	u2907
  1379     01AA  0BE3               	decfsz	??_main,f
  1380     01AB  29A8               	goto	u2907
  1381     01AC  0BE4               	decfsz	??_main+1,f
  1382     01AD  29A8               	goto	u2907
  1383     01AE                     l2476:
  1384                           
  1385                           ;main.c: 181:         }
  1386     01AE  3001               	movlw	1
  1387     01AF  0020               	movlb	0	; select bank0
  1388     01B0  07E5               	addwf	main@i,f
  1389     01B1  3000               	movlw	0
  1390     01B2  3DE6               	addwfc	main@i+1,f
  1391     01B3                     l2478:
  1392     01B3  0866               	movf	main@i+1,w
  1393     01B4  3A80               	xorlw	128
  1394     01B5  00E3               	movwf	??_main
  1395     01B6  3081               	movlw	129
  1396     01B7  0263               	subwf	??_main,w
  1397     01B8  1D03               	skipz
  1398     01B9  29BC               	goto	u2875
  1399     01BA  300F               	movlw	15
  1400     01BB  0265               	subwf	main@i,w
  1401     01BC                     u2875:
  1402     01BC  1C03               	skipc
  1403     01BD  29BF               	goto	u2871
  1404     01BE  29C0               	goto	u2870
  1405     01BF                     u2871:
  1406     01BF  296E               	goto	l2472
  1407     01C0                     u2870:
  1408     01C0                     l2480:
  1409                           
  1410                           ;main.c: 182:         for(int i = 270; i >= 0; i--){
  1411     01C0  300E               	movlw	14
  1412     01C1  0020               	movlb	0	; select bank0
  1413     01C2  00E7               	movwf	main@i_379
  1414     01C3  3001               	movlw	1
  1415     01C4  00E8               	movwf	main@i_379+1
  1416     01C5                     l2486:
  1417                           
  1418                           ;main.c: 183:             Servo5(i);
  1419     01C5  0867               	movf	main@i_379,w
  1420     01C6  00F0               	movwf	___xxtofl@val
  1421     01C7  0868               	movf	main@i_379+1,w
  1422     01C8  00F1               	movwf	___xxtofl@val+1
  1423     01C9  0D89               	rlf	9,f
  1424     01CA  3B89               	subwfb	9,f
  1425     01CB  0989               	comf	9,f
  1426     01CC  00F2               	movwf	___xxtofl@val+2
  1427     01CD  00F3               	movwf	___xxtofl@val+3
  1428     01CE  3001               	movlw	1
  1429     01CF  3180  2034  3180   	fcall	___xxtofl
  1430     01D2  0873               	movf	?___xxtofl+3,w
  1431     01D3  0020               	movlb	0	; select bank0
  1432     01D4  00DE               	movwf	Servo5@angle+3
  1433     01D5  0872               	movf	?___xxtofl+2,w
  1434     01D6  00DD               	movwf	Servo5@angle+2
  1435     01D7  0871               	movf	?___xxtofl+1,w
  1436     01D8  00DC               	movwf	Servo5@angle+1
  1437     01D9  0870               	movf	?___xxtofl,w
  1438     01DA  00DB               	movwf	Servo5@angle
  1439     01DB  318F  275A  3180   	fcall	_Servo5
  1440                           
  1441                           ;main.c: 184:             Servo12(i);
  1442     01DE  0020               	movlb	0	; select bank0
  1443     01DF  0867               	movf	main@i_379,w
  1444     01E0  00F0               	movwf	___xxtofl@val
  1445     01E1  0868               	movf	main@i_379+1,w
  1446     01E2  00F1               	movwf	___xxtofl@val+1
  1447     01E3  0D89               	rlf	9,f
  1448     01E4  3B89               	subwfb	9,f
  1449     01E5  0989               	comf	9,f
  1450     01E6  00F2               	movwf	___xxtofl@val+2
  1451     01E7  00F3               	movwf	___xxtofl@val+3
  1452     01E8  3001               	movlw	1
  1453     01E9  3180  2034  3180   	fcall	___xxtofl
  1454     01EC  0873               	movf	?___xxtofl+3,w
  1455     01ED  0020               	movlb	0	; select bank0
  1456     01EE  00DE               	movwf	Servo12@angle+3
  1457     01EF  0872               	movf	?___xxtofl+2,w
  1458     01F0  00DD               	movwf	Servo12@angle+2
  1459     01F1  0871               	movf	?___xxtofl+1,w
  1460     01F2  00DC               	movwf	Servo12@angle+1
  1461     01F3  0870               	movf	?___xxtofl,w
  1462     01F4  00DB               	movwf	Servo12@angle
  1463     01F5  318E  26B4  3180   	fcall	_Servo12
  1464     01F8                     l2488:
  1465                           
  1466                           ;main.c: 185:             _delay((unsigned long)((100)*(32000000/4000.0)));
  1467     01F8  3005               	movlw	5
  1468     01F9  0020               	movlb	0	; select bank0
  1469     01FA  00E4               	movwf	??_main+1
  1470     01FB  300F               	movlw	15
  1471     01FC  00E3               	movwf	??_main
  1472     01FD  30F1               	movlw	241
  1473     01FE                     u2917:
  1474     01FE  0B89               	decfsz	9,f
  1475     01FF  29FE               	goto	u2917
  1476     0200  0BE3               	decfsz	??_main,f
  1477     0201  29FE               	goto	u2917
  1478     0202  0BE4               	decfsz	??_main+1,f
  1479     0203  29FE               	goto	u2917
  1480     0204                     l2490:
  1481                           
  1482                           ;main.c: 186:         }
  1483     0204  30FF               	movlw	255
  1484     0205  0020               	movlb	0	; select bank0
  1485     0206  07E7               	addwf	main@i_379,f
  1486     0207  30FF               	movlw	255
  1487     0208  3DE8               	addwfc	main@i_379+1,f
  1488     0209                     l2492:
  1489     0209  1FE8               	btfss	main@i_379+1,7
  1490     020A  2A0C               	goto	u2881
  1491     020B  2A0D               	goto	u2880
  1492     020C                     u2881:
  1493     020C  29C5               	goto	l2486
  1494     020D                     u2880:
  1495     020D  296B               	goto	l2466
  1496     020E  3180  2802         	ljmp	start
  1497     0210                     __end_of_main:
  1498                           
  1499                           	psect	text1
  1500     0034                     __ptext1:	
  1501 ;; *************** function ___xxtofl *****************
  1502 ;; Defined at:
  1503 ;;		line 10 in file "D:\Program Files\Microchip\xc8\v2.40\pic\sources\c99\common\xxtofl.c"
  1504 ;; Parameters:    Size  Location     Type
  1505 ;;  sign            1    wreg     unsigned char 
  1506 ;;  val             4    0[COMMON] long 
  1507 ;; Auto vars:     Size  Location     Type
  1508 ;;  sign            1    8[COMMON] unsigned char 
  1509 ;;  arg             4   10[COMMON] unsigned long 
  1510 ;;  exp             1    9[COMMON] unsigned char 
  1511 ;; Return value:  Size  Location     Type
  1512 ;;                  4    0[COMMON] unsigned char 
  1513 ;; Registers used:
  1514 ;;		wreg, status,2, status,0
  1515 ;; Tracked objects:
  1516 ;;		On entry : 0/0
  1517 ;;		On exit  : 0/0
  1518 ;;		Unchanged: 0/0
  1519 ;; Data sizes:     COMMON   BANK0   BANK1   BANK2   BANK3   BANK4   BANK5   BANK6   BANK7   BANK8   BANK9  BANK10  BANK1
      +1  BANK12  BANK13  BANK14  BANK15  BANK16  BANK17  BANK18  BANK19  BANK20  BANK21  BANK22  BANK23  BANK24  BANK25
  1520 ;;      Params:         4       0       0       0       0       0       0       0       0       0       0       0       
      +0       0       0       0       0       0       0       0       0       0       0       0       0       0       0
  1521 ;;      Locals:         6       0       0       0       0       0       0       0       0       0       0       0       
      +0       0       0       0       0       0       0       0       0       0       0       0       0       0       0
  1522 ;;      Temps:          4       0       0       0       0       0       0       0       0       0       0       0       
      +0       0       0       0       0       0       0       0       0       0       0       0       0       0       0
  1523 ;;      Totals:        14       0       0       0       0       0       0       0       0       0       0       0       
      +0       0       0       0       0       0       0       0       0       0       0       0       0       0       0
  1524 ;;Total ram usage:       14 bytes
  1525 ;; Hardware stack levels used: 1
  1526 ;; This function calls:
  1527 ;;		Nothing
  1528 ;; This function is called by:
  1529 ;;		_main
  1530 ;; This function uses a non-reentrant model
  1531 ;;
  1532                           
  1533     0034                     ___xxtofl:	
  1534                           ;psect for function ___xxtofl
  1535                           
  1536                           
  1537                           ;incstack = 0
  1538                           ; Regs used in ___xxtofl: [wreg+status,2+status,0]
  1539                           ;___xxtofl@sign stored from wreg
  1540     0034  00F8               	movwf	___xxtofl@sign
  1541     0035                     l2296:
  1542     0035  0878               	movf	___xxtofl@sign,w
  1543     0036  1903               	btfsc	3,2
  1544     0037  2839               	goto	u2731
  1545     0038  283A               	goto	u2730
  1546     0039                     u2731:
  1547     0039  284E               	goto	l2302
  1548     003A                     u2730:
  1549     003A                     l2298:
  1550     003A  1FF3               	btfss	___xxtofl@val+3,7
  1551     003B  283D               	goto	u2741
  1552     003C  283E               	goto	u2740
  1553     003D                     u2741:
  1554     003D  284E               	goto	l2302
  1555     003E                     u2740:
  1556     003E                     l2300:
  1557     003E  0970               	comf	___xxtofl@val,w
  1558     003F  00FA               	movwf	___xxtofl@arg
  1559     0040  0971               	comf	___xxtofl@val+1,w
  1560     0041  00FB               	movwf	___xxtofl@arg+1
  1561     0042  0972               	comf	___xxtofl@val+2,w
  1562     0043  00FC               	movwf	___xxtofl@arg+2
  1563     0044  0973               	comf	___xxtofl@val+3,w
  1564     0045  00FD               	movwf	___xxtofl@arg+3
  1565     0046  0AFA               	incf	___xxtofl@arg,f
  1566     0047  1903               	skipnz
  1567     0048  0AFB               	incf	___xxtofl@arg+1,f
  1568     0049  1903               	skipnz
  1569     004A  0AFC               	incf	___xxtofl@arg+2,f
  1570     004B  1903               	skipnz
  1571     004C  0AFD               	incf	___xxtofl@arg+3,f
  1572     004D  2856               	goto	l769
  1573     004E                     l2302:
  1574     004E  0873               	movf	___xxtofl@val+3,w
  1575     004F  00FD               	movwf	___xxtofl@arg+3
  1576     0050  0872               	movf	___xxtofl@val+2,w
  1577     0051  00FC               	movwf	___xxtofl@arg+2
  1578     0052  0871               	movf	___xxtofl@val+1,w
  1579     0053  00FB               	movwf	___xxtofl@arg+1
  1580     0054  0870               	movf	___xxtofl@val,w
  1581     0055  00FA               	movwf	___xxtofl@arg
  1582     0056                     l769:
  1583     0056  0873               	movf	___xxtofl@val+3,w
  1584     0057  0472               	iorwf	___xxtofl@val+2,w
  1585     0058  0471               	iorwf	___xxtofl@val+1,w
  1586     0059  0470               	iorwf	___xxtofl@val,w
  1587     005A  1D03               	skipz
  1588     005B  285D               	goto	u2751
  1589     005C  285E               	goto	u2750
  1590     005D                     u2751:
  1591     005D  2867               	goto	l2308
  1592     005E                     u2750:
  1593     005E                     l2304:
  1594     005E  3000               	movlw	0
  1595     005F  00F3               	movwf	?___xxtofl+3
  1596     0060  3000               	movlw	0
  1597     0061  00F2               	movwf	?___xxtofl+2
  1598     0062  3000               	movlw	0
  1599     0063  00F1               	movwf	?___xxtofl+1
  1600     0064  3000               	movlw	0
  1601     0065  00F0               	movwf	?___xxtofl
  1602     0066  28DD               	goto	l771
  1603     0067                     l2308:
  1604     0067  3096               	movlw	150
  1605     0068  00F9               	movwf	___xxtofl@exp
  1606     0069  2875               	goto	l2312
  1607     006A                     l2310:
  1608     006A  3001               	movlw	1
  1609     006B  00F4               	movwf	??___xxtofl
  1610     006C  0874               	movf	??___xxtofl,w
  1611     006D  07F9               	addwf	___xxtofl@exp,f
  1612     006E  3001               	movlw	1
  1613     006F                     u2765:
  1614     006F  36FD               	lsrf	___xxtofl@arg+3,f
  1615     0070  0CFC               	rrf	___xxtofl@arg+2,f
  1616     0071  0CFB               	rrf	___xxtofl@arg+1,f
  1617     0072  0CFA               	rrf	___xxtofl@arg,f
  1618     0073  0B89               	decfsz	9,f
  1619     0074  286F               	goto	u2765
  1620     0075                     l2312:
  1621     0075  30FE               	movlw	254
  1622     0076  057D               	andwf	___xxtofl@arg+3,w
  1623     0077  1D03               	btfss	3,2
  1624     0078  287A               	goto	u2771
  1625     0079  287B               	goto	u2770
  1626     007A                     u2771:
  1627     007A  286A               	goto	l2310
  1628     007B                     u2770:
  1629     007B  288F               	goto	l775
  1630     007C                     l2314:
  1631     007C  3001               	movlw	1
  1632     007D  00F4               	movwf	??___xxtofl
  1633     007E  0874               	movf	??___xxtofl,w
  1634     007F  07F9               	addwf	___xxtofl@exp,f
  1635     0080                     l2316:
  1636     0080  3001               	movlw	1
  1637     0081  07FA               	addwf	___xxtofl@arg,f
  1638     0082  3000               	movlw	0
  1639     0083  3DFB               	addwfc	___xxtofl@arg+1,f
  1640     0084  3000               	movlw	0
  1641     0085  3DFC               	addwfc	___xxtofl@arg+2,f
  1642     0086  3000               	movlw	0
  1643     0087  3DFD               	addwfc	___xxtofl@arg+3,f
  1644     0088                     l2318:
  1645     0088  3001               	movlw	1
  1646     0089                     u2785:
  1647     0089  36FD               	lsrf	___xxtofl@arg+3,f
  1648     008A  0CFC               	rrf	___xxtofl@arg+2,f
  1649     008B  0CFB               	rrf	___xxtofl@arg+1,f
  1650     008C  0CFA               	rrf	___xxtofl@arg,f
  1651     008D  0B89               	decfsz	9,f
  1652     008E  2889               	goto	u2785
  1653     008F                     l775:
  1654     008F  30FF               	movlw	255
  1655     0090  057D               	andwf	___xxtofl@arg+3,w
  1656     0091  1D03               	btfss	3,2
  1657     0092  2894               	goto	u2791
  1658     0093  2895               	goto	u2790
  1659     0094                     u2791:
  1660     0094  287C               	goto	l2314
  1661     0095                     u2790:
  1662     0095  289F               	goto	l2322
  1663     0096                     l2320:
  1664     0096  3001               	movlw	1
  1665     0097  02F9               	subwf	___xxtofl@exp,f
  1666     0098  3001               	movlw	1
  1667     0099                     u2805:
  1668     0099  35FA               	lslf	___xxtofl@arg,f
  1669     009A  0DFB               	rlf	___xxtofl@arg+1,f
  1670     009B  0DFC               	rlf	___xxtofl@arg+2,f
  1671     009C  0DFD               	rlf	___xxtofl@arg+3,f
  1672     009D  0B89               	decfsz	9,f
  1673     009E  2899               	goto	u2805
  1674     009F                     l2322:
  1675     009F  1BFC               	btfsc	___xxtofl@arg+2,7
  1676     00A0  28A2               	goto	u2811
  1677     00A1  28A3               	goto	u2810
  1678     00A2                     u2811:
  1679     00A2  28A9               	goto	l782
  1680     00A3                     u2810:
  1681     00A3                     l2324:
  1682     00A3  3002               	movlw	2
  1683     00A4  0279               	subwf	___xxtofl@exp,w
  1684     00A5  1803               	skipnc
  1685     00A6  28A8               	goto	u2821
  1686     00A7  28A9               	goto	u2820
  1687     00A8                     u2821:
  1688     00A8  2896               	goto	l2320
  1689     00A9                     u2820:
  1690     00A9                     l782:
  1691     00A9  1879               	btfsc	___xxtofl@exp,0
  1692     00AA  28AC               	goto	u2831
  1693     00AB  28AD               	goto	u2830
  1694     00AC                     u2831:
  1695     00AC  28B5               	goto	l783
  1696     00AD                     u2830:
  1697     00AD                     l2326:
  1698     00AD  30FF               	movlw	255
  1699     00AE  05FA               	andwf	___xxtofl@arg,f
  1700     00AF  30FF               	movlw	255
  1701     00B0  05FB               	andwf	___xxtofl@arg+1,f
  1702     00B1  307F               	movlw	127
  1703     00B2  05FC               	andwf	___xxtofl@arg+2,f
  1704     00B3  30FF               	movlw	255
  1705     00B4  05FD               	andwf	___xxtofl@arg+3,f
  1706     00B5                     l783:
  1707     00B5  1003               	clrc
  1708     00B6  0CF9               	rrf	___xxtofl@exp,f
  1709     00B7                     l2328:
  1710     00B7  0879               	movf	___xxtofl@exp,w
  1711     00B8  00F4               	movwf	??___xxtofl
  1712     00B9  01F5               	clrf	??___xxtofl+1
  1713     00BA  01F6               	clrf	??___xxtofl+2
  1714     00BB  01F7               	clrf	??___xxtofl+3
  1715     00BC  3018               	movlw	24
  1716     00BD                     u2845:
  1717     00BD  35F4               	lslf	??___xxtofl,f
  1718     00BE  0DF5               	rlf	??___xxtofl+1,f
  1719     00BF  0DF6               	rlf	??___xxtofl+2,f
  1720     00C0  0DF7               	rlf	??___xxtofl+3,f
  1721     00C1                     u2840:
  1722     00C1  0B89               	decfsz	9,f
  1723     00C2  28BD               	goto	u2845
  1724     00C3  0874               	movf	??___xxtofl,w
  1725     00C4  04FA               	iorwf	___xxtofl@arg,f
  1726     00C5  0875               	movf	??___xxtofl+1,w
  1727     00C6  04FB               	iorwf	___xxtofl@arg+1,f
  1728     00C7  0876               	movf	??___xxtofl+2,w
  1729     00C8  04FC               	iorwf	___xxtofl@arg+2,f
  1730     00C9  0877               	movf	??___xxtofl+3,w
  1731     00CA  04FD               	iorwf	___xxtofl@arg+3,f
  1732     00CB                     l2330:
  1733     00CB  0878               	movf	___xxtofl@sign,w
  1734     00CC  1903               	btfsc	3,2
  1735     00CD  28CF               	goto	u2851
  1736     00CE  28D0               	goto	u2850
  1737     00CF                     u2851:
  1738     00CF  28D5               	goto	l2336
  1739     00D0                     u2850:
  1740     00D0                     l2332:
  1741     00D0  1FF3               	btfss	___xxtofl@val+3,7
  1742     00D1  28D3               	goto	u2861
  1743     00D2  28D4               	goto	u2860
  1744     00D3                     u2861:
  1745     00D3  28D5               	goto	l2336
  1746     00D4                     u2860:
  1747     00D4                     l2334:
  1748     00D4  17FD               	bsf	___xxtofl@arg+3,7
  1749     00D5                     l2336:
  1750     00D5  087D               	movf	___xxtofl@arg+3,w
  1751     00D6  00F3               	movwf	?___xxtofl+3
  1752     00D7  087C               	movf	___xxtofl@arg+2,w
  1753     00D8  00F2               	movwf	?___xxtofl+2
  1754     00D9  087B               	movf	___xxtofl@arg+1,w
  1755     00DA  00F1               	movwf	?___xxtofl+1
  1756     00DB  087A               	movf	___xxtofl@arg,w
  1757     00DC  00F0               	movwf	?___xxtofl
  1758     00DD                     l771:
  1759     00DD  0008               	return
  1760     00DE                     __end_of___xxtofl:
  1761                           
  1762                           	psect	text2
  1763     0F5A                     __ptext2:	
  1764 ;; *************** function _Servo5 *****************
  1765 ;; Defined at:
  1766 ;;		line 332 in file "main.c"
  1767 ;; Parameters:    Size  Location     Type
  1768 ;;  angle           4   59[BANK0 ] unsigned char 
  1769 ;; Auto vars:     Size  Location     Type
  1770 ;;  duty            4   63[BANK0 ] unsigned char 
  1771 ;; Return value:  Size  Location     Type
  1772 ;;                  1    wreg      void 
  1773 ;; Registers used:
  1774 ;;		wreg, status,2, status,0, pclath, cstack
  1775 ;; Tracked objects:
  1776 ;;		On entry : 0/0
  1777 ;;		On exit  : 0/0
  1778 ;;		Unchanged: 0/0
  1779 ;; Data sizes:     COMMON   BANK0   BANK1   BANK2   BANK3   BANK4   BANK5   BANK6   BANK7   BANK8   BANK9  BANK10  BANK1
      +1  BANK12  BANK13  BANK14  BANK15  BANK16  BANK17  BANK18  BANK19  BANK20  BANK21  BANK22  BANK23  BANK24  BANK25
  1780 ;;      Params:         0       4       0       0       0       0       0       0       0       0       0       0       
      +0       0       0       0       0       0       0       0       0       0       0       0       0       0       0
  1781 ;;      Locals:         0       4       0       0       0       0       0       0       0       0       0       0       
      +0       0       0       0       0       0       0       0       0       0       0       0       0       0       0
  1782 ;;      Temps:          0       0       0       0       0       0       0       0       0       0       0       0       
      +0       0       0       0       0       0       0       0       0       0       0       0       0       0       0
  1783 ;;      Totals:         0       8       0       0       0       0       0       0       0       0       0       0       
      +0       0       0       0       0       0       0       0       0       0       0       0       0       0       0
  1784 ;;Total ram usage:        8 bytes
  1785 ;; Hardware stack levels used: 1
  1786 ;; Hardware stack levels required when called: 2
  1787 ;; This function calls:
  1788 ;;		___fladd
  1789 ;;		___fldiv
  1790 ;;		___flge
  1791 ;;		___flmul
  1792 ;;		___fltol
  1793 ;; This function is called by:
  1794 ;;		_main
  1795 ;; This function uses a non-reentrant model
  1796 ;;
  1797                           
  1798     0F5A                     _Servo5:	
  1799                           ;psect for function _Servo5
  1800                           
  1801     0F5A                     l2268:	
  1802                           ;incstack = 0
  1803                           ; Regs used in _Servo5: [wreg+status,2+status,0+pclath+cstack]
  1804                           
  1805                           
  1806                           ;main.c: 334:     double duty;;main.c: 336:     angle > 180 ? (angle = 180) : angle;
  1807     0F5A  3043               	movlw	67
  1808     0F5B  00F3               	movwf	___flge@ff1+3
  1809     0F5C  3034               	movlw	52
  1810     0F5D  00F2               	movwf	___flge@ff1+2
  1811     0F5E  3000               	movlw	0
  1812     0F5F  00F1               	movwf	___flge@ff1+1
  1813     0F60  3000               	movlw	0
  1814     0F61  00F0               	movwf	___flge@ff1
  1815     0F62  0020               	movlb	0	; select bank0
  1816     0F63  085E               	movf	Servo5@angle+3,w
  1817     0F64  00F7               	movwf	___flge@ff2+3
  1818     0F65  085D               	movf	Servo5@angle+2,w
  1819     0F66  00F6               	movwf	___flge@ff2+2
  1820     0F67  085C               	movf	Servo5@angle+1,w
  1821     0F68  00F5               	movwf	___flge@ff2+1
  1822     0F69  085B               	movf	Servo5@angle,w
  1823     0F6A  00F4               	movwf	___flge@ff2
  1824     0F6B  318E  262A  318F   	fcall	___flge
  1825     0F6E  1803               	btfsc	3,0
  1826     0F6F  2F71               	goto	u2691
  1827     0F70  2F72               	goto	u2690
  1828     0F71                     u2691:
  1829     0F71  2F7B               	goto	l2272
  1830     0F72                     u2690:
  1831     0F72                     l2270:
  1832     0F72  3043               	movlw	67
  1833     0F73  0020               	movlb	0	; select bank0
  1834     0F74  00DE               	movwf	Servo5@angle+3
  1835     0F75  3034               	movlw	52
  1836     0F76  00DD               	movwf	Servo5@angle+2
  1837     0F77  3000               	movlw	0
  1838     0F78  00DC               	movwf	Servo5@angle+1
  1839     0F79  3000               	movlw	0
  1840     0F7A  00DB               	movwf	Servo5@angle
  1841     0F7B                     l2272:
  1842                           
  1843                           ;main.c: 337:     angle < 0 ? (angle = 0) : angle;
  1844     0F7B  0020               	movlb	0	; select bank0
  1845     0F7C  085E               	movf	Servo5@angle+3,w
  1846     0F7D  00F3               	movwf	___flge@ff1+3
  1847     0F7E  085D               	movf	Servo5@angle+2,w
  1848     0F7F  00F2               	movwf	___flge@ff1+2
  1849     0F80  085C               	movf	Servo5@angle+1,w
  1850     0F81  00F1               	movwf	___flge@ff1+1
  1851     0F82  085B               	movf	Servo5@angle,w
  1852     0F83  00F0               	movwf	___flge@ff1
  1853     0F84  3000               	movlw	0
  1854     0F85  00F7               	movwf	___flge@ff2+3
  1855     0F86  3000               	movlw	0
  1856     0F87  00F6               	movwf	___flge@ff2+2
  1857     0F88  3000               	movlw	0
  1858     0F89  00F5               	movwf	___flge@ff2+1
  1859     0F8A  3000               	movlw	0
  1860     0F8B  00F4               	movwf	___flge@ff2
  1861     0F8C  318E  262A  318F   	fcall	___flge
  1862     0F8F  1803               	btfsc	3,0
  1863     0F90  2F92               	goto	u2701
  1864     0F91  2F93               	goto	u2700
  1865     0F92                     u2701:
  1866     0F92  2F9C               	goto	l2276
  1867     0F93                     u2700:
  1868     0F93                     l2274:
  1869     0F93  3000               	movlw	0
  1870     0F94  0020               	movlb	0	; select bank0
  1871     0F95  00DE               	movwf	Servo5@angle+3
  1872     0F96  3000               	movlw	0
  1873     0F97  00DD               	movwf	Servo5@angle+2
  1874     0F98  3000               	movlw	0
  1875     0F99  00DC               	movwf	Servo5@angle+1
  1876     0F9A  3000               	movlw	0
  1877     0F9B  00DB               	movwf	Servo5@angle
  1878     0F9C                     l2276:
  1879                           
  1880                           ;main.c: 339:     duty = (3800 * (angle / 180)) + 999;
  1881     0F9C  3044               	movlw	68
  1882     0F9D  0020               	movlb	0	; select bank0
  1883     0F9E  00CA               	movwf	___fladd@b+3
  1884     0F9F  3079               	movlw	121
  1885     0FA0  00C9               	movwf	___fladd@b+2
  1886     0FA1  30C0               	movlw	192
  1887     0FA2  00C8               	movwf	___fladd@b+1
  1888     0FA3  3000               	movlw	0
  1889     0FA4  00C7               	movwf	___fladd@b
  1890     0FA5  3045               	movlw	69
  1891     0FA6  00B0               	movwf	___flmul@b+3
  1892     0FA7  306D               	movlw	109
  1893     0FA8  00AF               	movwf	___flmul@b+2
  1894     0FA9  3080               	movlw	128
  1895     0FAA  00AE               	movwf	___flmul@b+1
  1896     0FAB  3000               	movlw	0
  1897     0FAC  00AD               	movwf	___flmul@b
  1898     0FAD  3043               	movlw	67
  1899     0FAE  00F3               	movwf	___fldiv@a+3
  1900     0FAF  3034               	movlw	52
  1901     0FB0  00F2               	movwf	___fldiv@a+2
  1902     0FB1  3000               	movlw	0
  1903     0FB2  00F1               	movwf	___fldiv@a+1
  1904     0FB3  3000               	movlw	0
  1905     0FB4  00F0               	movwf	___fldiv@a
  1906     0FB5  085E               	movf	Servo5@angle+3,w
  1907     0FB6  00F7               	movwf	___fldiv@b+3
  1908     0FB7  085D               	movf	Servo5@angle+2,w
  1909     0FB8  00F6               	movwf	___fldiv@b+2
  1910     0FB9  085C               	movf	Servo5@angle+1,w
  1911     0FBA  00F5               	movwf	___fldiv@b+1
  1912     0FBB  085B               	movf	Servo5@angle,w
  1913     0FBC  00F4               	movwf	___fldiv@b
  1914     0FBD  3182  2210  318F   	fcall	___fldiv
  1915     0FC0  0873               	movf	?___fldiv+3,w
  1916     0FC1  0020               	movlb	0	; select bank0
  1917     0FC2  00B4               	movwf	___flmul@a+3
  1918     0FC3  0872               	movf	?___fldiv+2,w
  1919     0FC4  00B3               	movwf	___flmul@a+2
  1920     0FC5  0871               	movf	?___fldiv+1,w
  1921     0FC6  00B2               	movwf	___flmul@a+1
  1922     0FC7  0870               	movf	?___fldiv,w
  1923     0FC8  00B1               	movwf	___flmul@a
  1924     0FC9  3185  25C2  318F   	fcall	___flmul
  1925     0FCC  0020               	movlb	0	; select bank0
  1926     0FCD  0830               	movf	?___flmul+3,w
  1927     0FCE  00CE               	movwf	___fladd@a+3
  1928     0FCF  082F               	movf	?___flmul+2,w
  1929     0FD0  00CD               	movwf	___fladd@a+2
  1930     0FD1  082E               	movf	?___flmul+1,w
  1931     0FD2  00CC               	movwf	___fladd@a+1
  1932     0FD3  082D               	movf	?___flmul,w
  1933     0FD4  00CB               	movwf	___fladd@a
  1934     0FD5  3183  23BA  318F   	fcall	___fladd
  1935     0FD8  0020               	movlb	0	; select bank0
  1936     0FD9  084A               	movf	?___fladd+3,w
  1937     0FDA  00E2               	movwf	Servo5@duty+3
  1938     0FDB  0849               	movf	?___fladd+2,w
  1939     0FDC  00E1               	movwf	Servo5@duty+2
  1940     0FDD  0848               	movf	?___fladd+1,w
  1941     0FDE  00E0               	movwf	Servo5@duty+1
  1942     0FDF  0847               	movf	?___fladd,w
  1943     0FE0  00DF               	movwf	Servo5@duty
  1944                           
  1945                           ;main.c: 342:     PWM5DCH = ((int)duty >> 8) & 0x00FF;
  1946     0FE1  0862               	movf	Servo5@duty+3,w
  1947     0FE2  00F3               	movwf	___fltol@f1+3
  1948     0FE3  0861               	movf	Servo5@duty+2,w
  1949     0FE4  00F2               	movwf	___fltol@f1+2
  1950     0FE5  0860               	movf	Servo5@duty+1,w
  1951     0FE6  00F1               	movwf	___fltol@f1+1
  1952     0FE7  085F               	movf	Servo5@duty,w
  1953     0FE8  00F0               	movwf	___fltol@f1
  1954     0FE9  318D  25BA  318F   	fcall	___fltol
  1955     0FEC  0871               	movf	?___fltol+1,w
  1956     0FED  003B               	movlb	27	; select bank27
  1957     0FEE  0094               	movwf	20	;volatile
  1958                           
  1959                           ;main.c: 343:     PWM5DCL = (int)duty & 0x00FF;
  1960     0FEF  0020               	movlb	0	; select bank0
  1961     0FF0  0862               	movf	Servo5@duty+3,w
  1962     0FF1  00F3               	movwf	___fltol@f1+3
  1963     0FF2  0861               	movf	Servo5@duty+2,w
  1964     0FF3  00F2               	movwf	___fltol@f1+2
  1965     0FF4  0860               	movf	Servo5@duty+1,w
  1966     0FF5  00F1               	movwf	___fltol@f1+1
  1967     0FF6  085F               	movf	Servo5@duty,w
  1968     0FF7  00F0               	movwf	___fltol@f1
  1969     0FF8  318D  25BA  318F   	fcall	___fltol
  1970     0FFB  0870               	movf	?___fltol,w
  1971     0FFC  003B               	movlb	27	; select bank27
  1972     0FFD  0093               	movwf	19	;volatile
  1973     0FFE                     l2278:
  1974                           
  1975                           ;main.c: 344:     PWM5LDCONbits.LDA = 1;
  1976     0FFE  179F               	bsf	31,7	;volatile
  1977     0FFF                     l249:
  1978     0FFF  0008               	return
  1979     1000                     __end_of_Servo5:
  1980                           
  1981                           	psect	text3
  1982     0EB4                     __ptext3:	
  1983 ;; *************** function _Servo12 *****************
  1984 ;; Defined at:
  1985 ;;		line 349 in file "main.c"
  1986 ;; Parameters:    Size  Location     Type
  1987 ;;  angle           4   59[BANK0 ] void 
  1988 ;; Auto vars:     Size  Location     Type
  1989 ;;  duty            4   63[BANK0 ] void 
  1990 ;; Return value:  Size  Location     Type
  1991 ;;                  1    wreg      void 
  1992 ;; Registers used:
  1993 ;;		wreg, status,2, status,0, pclath, cstack
  1994 ;; Tracked objects:
  1995 ;;		On entry : 0/0
  1996 ;;		On exit  : 0/0
  1997 ;;		Unchanged: 0/0
  1998 ;; Data sizes:     COMMON   BANK0   BANK1   BANK2   BANK3   BANK4   BANK5   BANK6   BANK7   BANK8   BANK9  BANK10  BANK1
      +1  BANK12  BANK13  BANK14  BANK15  BANK16  BANK17  BANK18  BANK19  BANK20  BANK21  BANK22  BANK23  BANK24  BANK25
  1999 ;;      Params:         0       4       0       0       0       0       0       0       0       0       0       0       
      +0       0       0       0       0       0       0       0       0       0       0       0       0       0       0
  2000 ;;      Locals:         0       4       0       0       0       0       0       0       0       0       0       0       
      +0       0       0       0       0       0       0       0       0       0       0       0       0       0       0
  2001 ;;      Temps:          0       0       0       0       0       0       0       0       0       0       0       0       
      +0       0       0       0       0       0       0       0       0       0       0       0       0       0       0
  2002 ;;      Totals:         0       8       0       0       0       0       0       0       0       0       0       0       
      +0       0       0       0       0       0       0       0       0       0       0       0       0       0       0
  2003 ;;Total ram usage:        8 bytes
  2004 ;; Hardware stack levels used: 1
  2005 ;; Hardware stack levels required when called: 2
  2006 ;; This function calls:
  2007 ;;		___fladd
  2008 ;;		___fldiv
  2009 ;;		___flge
  2010 ;;		___flmul
  2011 ;;		___fltol
  2012 ;; This function is called by:
  2013 ;;		_main
  2014 ;; This function uses a non-reentrant model
  2015 ;;
  2016                           
  2017     0EB4                     _Servo12:	
  2018                           ;psect for function _Servo12
  2019                           
  2020     0EB4                     l2282:	
  2021                           ;incstack = 0
  2022                           ; Regs used in _Servo12: [wreg+status,2+status,0+pclath+cstack]
  2023                           
  2024                           
  2025                           ;main.c: 351:     double duty;;main.c: 353:     angle > 270 ? (angle = 270) : angle;
  2026     0EB4  3043               	movlw	67
  2027     0EB5  00F3               	movwf	___flge@ff1+3
  2028     0EB6  3087               	movlw	135
  2029     0EB7  00F2               	movwf	___flge@ff1+2
  2030     0EB8  3000               	movlw	0
  2031     0EB9  00F1               	movwf	___flge@ff1+1
  2032     0EBA  3000               	movlw	0
  2033     0EBB  00F0               	movwf	___flge@ff1
  2034     0EBC  0020               	movlb	0	; select bank0
  2035     0EBD  085E               	movf	Servo12@angle+3,w
  2036     0EBE  00F7               	movwf	___flge@ff2+3
  2037     0EBF  085D               	movf	Servo12@angle+2,w
  2038     0EC0  00F6               	movwf	___flge@ff2+2
  2039     0EC1  085C               	movf	Servo12@angle+1,w
  2040     0EC2  00F5               	movwf	___flge@ff2+1
  2041     0EC3  085B               	movf	Servo12@angle,w
  2042     0EC4  00F4               	movwf	___flge@ff2
  2043     0EC5  318E  262A  318E   	fcall	___flge
  2044     0EC8  1803               	btfsc	3,0
  2045     0EC9  2ECB               	goto	u2711
  2046     0ECA  2ECC               	goto	u2710
  2047     0ECB                     u2711:
  2048     0ECB  2ED5               	goto	l2286
  2049     0ECC                     u2710:
  2050     0ECC                     l2284:
  2051     0ECC  3043               	movlw	67
  2052     0ECD  0020               	movlb	0	; select bank0
  2053     0ECE  00DE               	movwf	Servo12@angle+3
  2054     0ECF  3087               	movlw	135
  2055     0ED0  00DD               	movwf	Servo12@angle+2
  2056     0ED1  3000               	movlw	0
  2057     0ED2  00DC               	movwf	Servo12@angle+1
  2058     0ED3  3000               	movlw	0
  2059     0ED4  00DB               	movwf	Servo12@angle
  2060     0ED5                     l2286:
  2061                           
  2062                           ;main.c: 354:     angle < 0 ? (angle = 0) : angle;
  2063     0ED5  0020               	movlb	0	; select bank0
  2064     0ED6  085E               	movf	Servo12@angle+3,w
  2065     0ED7  00F3               	movwf	___flge@ff1+3
  2066     0ED8  085D               	movf	Servo12@angle+2,w
  2067     0ED9  00F2               	movwf	___flge@ff1+2
  2068     0EDA  085C               	movf	Servo12@angle+1,w
  2069     0EDB  00F1               	movwf	___flge@ff1+1
  2070     0EDC  085B               	movf	Servo12@angle,w
  2071     0EDD  00F0               	movwf	___flge@ff1
  2072     0EDE  3000               	movlw	0
  2073     0EDF  00F7               	movwf	___flge@ff2+3
  2074     0EE0  3000               	movlw	0
  2075     0EE1  00F6               	movwf	___flge@ff2+2
  2076     0EE2  3000               	movlw	0
  2077     0EE3  00F5               	movwf	___flge@ff2+1
  2078     0EE4  3000               	movlw	0
  2079     0EE5  00F4               	movwf	___flge@ff2
  2080     0EE6  318E  262A  318E   	fcall	___flge
  2081     0EE9  1803               	btfsc	3,0
  2082     0EEA  2EEC               	goto	u2721
  2083     0EEB  2EED               	goto	u2720
  2084     0EEC                     u2721:
  2085     0EEC  2EF6               	goto	l2290
  2086     0EED                     u2720:
  2087     0EED                     l2288:
  2088     0EED  3000               	movlw	0
  2089     0EEE  0020               	movlb	0	; select bank0
  2090     0EEF  00DE               	movwf	Servo12@angle+3
  2091     0EF0  3000               	movlw	0
  2092     0EF1  00DD               	movwf	Servo12@angle+2
  2093     0EF2  3000               	movlw	0
  2094     0EF3  00DC               	movwf	Servo12@angle+1
  2095     0EF4  3000               	movlw	0
  2096     0EF5  00DB               	movwf	Servo12@angle
  2097     0EF6                     l2290:
  2098                           
  2099                           ;main.c: 356:     duty = (3200 * (angle / 270)) + 1399;
  2100     0EF6  3044               	movlw	68
  2101     0EF7  0020               	movlb	0	; select bank0
  2102     0EF8  00CA               	movwf	___fladd@b+3
  2103     0EF9  30AE               	movlw	174
  2104     0EFA  00C9               	movwf	___fladd@b+2
  2105     0EFB  30E0               	movlw	224
  2106     0EFC  00C8               	movwf	___fladd@b+1
  2107     0EFD  3000               	movlw	0
  2108     0EFE  00C7               	movwf	___fladd@b
  2109     0EFF  3045               	movlw	69
  2110     0F00  00B0               	movwf	___flmul@b+3
  2111     0F01  3048               	movlw	72
  2112     0F02  00AF               	movwf	___flmul@b+2
  2113     0F03  3000               	movlw	0
  2114     0F04  00AE               	movwf	___flmul@b+1
  2115     0F05  3000               	movlw	0
  2116     0F06  00AD               	movwf	___flmul@b
  2117     0F07  3043               	movlw	67
  2118     0F08  00F3               	movwf	___fldiv@a+3
  2119     0F09  3087               	movlw	135
  2120     0F0A  00F2               	movwf	___fldiv@a+2
  2121     0F0B  3000               	movlw	0
  2122     0F0C  00F1               	movwf	___fldiv@a+1
  2123     0F0D  3000               	movlw	0
  2124     0F0E  00F0               	movwf	___fldiv@a
  2125     0F0F  085E               	movf	Servo12@angle+3,w
  2126     0F10  00F7               	movwf	___fldiv@b+3
  2127     0F11  085D               	movf	Servo12@angle+2,w
  2128     0F12  00F6               	movwf	___fldiv@b+2
  2129     0F13  085C               	movf	Servo12@angle+1,w
  2130     0F14  00F5               	movwf	___fldiv@b+1
  2131     0F15  085B               	movf	Servo12@angle,w
  2132     0F16  00F4               	movwf	___fldiv@b
  2133     0F17  3182  2210  318E   	fcall	___fldiv
  2134     0F1A  0873               	movf	?___fldiv+3,w
  2135     0F1B  0020               	movlb	0	; select bank0
  2136     0F1C  00B4               	movwf	___flmul@a+3
  2137     0F1D  0872               	movf	?___fldiv+2,w
  2138     0F1E  00B3               	movwf	___flmul@a+2
  2139     0F1F  0871               	movf	?___fldiv+1,w
  2140     0F20  00B2               	movwf	___flmul@a+1
  2141     0F21  0870               	movf	?___fldiv,w
  2142     0F22  00B1               	movwf	___flmul@a
  2143     0F23  3185  25C2  318E   	fcall	___flmul
  2144     0F26  0020               	movlb	0	; select bank0
  2145     0F27  0830               	movf	?___flmul+3,w
  2146     0F28  00CE               	movwf	___fladd@a+3
  2147     0F29  082F               	movf	?___flmul+2,w
  2148     0F2A  00CD               	movwf	___fladd@a+2
  2149     0F2B  082E               	movf	?___flmul+1,w
  2150     0F2C  00CC               	movwf	___fladd@a+1
  2151     0F2D  082D               	movf	?___flmul,w
  2152     0F2E  00CB               	movwf	___fladd@a
  2153     0F2F  3183  23BA  318E   	fcall	___fladd
  2154     0F32  0020               	movlb	0	; select bank0
  2155     0F33  084A               	movf	?___fladd+3,w
  2156     0F34  00E2               	movwf	Servo12@duty+3
  2157     0F35  0849               	movf	?___fladd+2,w
  2158     0F36  00E1               	movwf	Servo12@duty+2
  2159     0F37  0848               	movf	?___fladd+1,w
  2160     0F38  00E0               	movwf	Servo12@duty+1
  2161     0F39  0847               	movf	?___fladd,w
  2162     0F3A  00DF               	movwf	Servo12@duty
  2163                           
  2164                           ;main.c: 358:     PWM6DCH = ((int)duty >> 8) & 0x00FF;
  2165     0F3B  0862               	movf	Servo12@duty+3,w
  2166     0F3C  00F3               	movwf	___fltol@f1+3
  2167     0F3D  0861               	movf	Servo12@duty+2,w
  2168     0F3E  00F2               	movwf	___fltol@f1+2
  2169     0F3F  0860               	movf	Servo12@duty+1,w
  2170     0F40  00F1               	movwf	___fltol@f1+1
  2171     0F41  085F               	movf	Servo12@duty,w
  2172     0F42  00F0               	movwf	___fltol@f1
  2173     0F43  318D  25BA  318E   	fcall	___fltol
  2174     0F46  0871               	movf	?___fltol+1,w
  2175     0F47  003B               	movlb	27	; select bank27
  2176     0F48  00A4               	movwf	36	;volatile
  2177                           
  2178                           ;main.c: 359:     PWM6DCL = (int)duty & 0x00FF;
  2179     0F49  0020               	movlb	0	; select bank0
  2180     0F4A  0862               	movf	Servo12@duty+3,w
  2181     0F4B  00F3               	movwf	___fltol@f1+3
  2182     0F4C  0861               	movf	Servo12@duty+2,w
  2183     0F4D  00F2               	movwf	___fltol@f1+2
  2184     0F4E  0860               	movf	Servo12@duty+1,w
  2185     0F4F  00F1               	movwf	___fltol@f1+1
  2186     0F50  085F               	movf	Servo12@duty,w
  2187     0F51  00F0               	movwf	___fltol@f1
  2188     0F52  318D  25BA  318E   	fcall	___fltol
  2189     0F55  0870               	movf	?___fltol,w
  2190     0F56  003B               	movlb	27	; select bank27
  2191     0F57  00A3               	movwf	35	;volatile
  2192     0F58                     l2292:
  2193                           
  2194                           ;main.c: 360:     PWM6LDCONbits.LDA = 1;
  2195     0F58  17AF               	bsf	47,7	;volatile
  2196     0F59                     l260:
  2197     0F59  0008               	return
  2198     0F5A                     __end_of_Servo12:
  2199                           
  2200                           	psect	text4
  2201     0DBA                     __ptext4:	
  2202 ;; *************** function ___fltol *****************
  2203 ;; Defined at:
  2204 ;;		line 43 in file "D:\Program Files\Microchip\xc8\v2.40\pic\sources\c99\common\fltol.c"
  2205 ;; Parameters:    Size  Location     Type
  2206 ;;  f1              4    0[COMMON] void 
  2207 ;; Auto vars:     Size  Location     Type
  2208 ;;  exp1            1    9[COMMON] unsigned char 
  2209 ;;  sign1           1    8[COMMON] unsigned char 
  2210 ;; Return value:  Size  Location     Type
  2211 ;;                  4    0[COMMON] long 
  2212 ;; Registers used:
  2213 ;;		wreg, status,2, status,0
  2214 ;; Tracked objects:
  2215 ;;		On entry : 0/0
  2216 ;;		On exit  : 0/0
  2217 ;;		Unchanged: 0/0
  2218 ;; Data sizes:     COMMON   BANK0   BANK1   BANK2   BANK3   BANK4   BANK5   BANK6   BANK7   BANK8   BANK9  BANK10  BANK1
      +1  BANK12  BANK13  BANK14  BANK15  BANK16  BANK17  BANK18  BANK19  BANK20  BANK21  BANK22  BANK23  BANK24  BANK25
  2219 ;;      Params:         4       0       0       0       0       0       0       0       0       0       0       0       
      +0       0       0       0       0       0       0       0       0       0       0       0       0       0       0
  2220 ;;      Locals:         2       0       0       0       0       0       0       0       0       0       0       0       
      +0       0       0       0       0       0       0       0       0       0       0       0       0       0       0
  2221 ;;      Temps:          4       0       0       0       0       0       0       0       0       0       0       0       
      +0       0       0       0       0       0       0       0       0       0       0       0       0       0       0
  2222 ;;      Totals:        10       0       0       0       0       0       0       0       0       0       0       0       
      +0       0       0       0       0       0       0       0       0       0       0       0       0       0       0
  2223 ;;Total ram usage:       10 bytes
  2224 ;; Hardware stack levels used: 1
  2225 ;; This function calls:
  2226 ;;		Nothing
  2227 ;; This function is called by:
  2228 ;;		_Servo5
  2229 ;;		_Servo12
  2230 ;; This function uses a non-reentrant model
  2231 ;;
  2232                           
  2233     0DBA                     ___fltol:	
  2234                           ;psect for function ___fltol
  2235                           
  2236     0DBA                     l1758:	
  2237                           ;incstack = 0
  2238                           ; Regs used in ___fltol: [wreg+status,2+status,0]
  2239                           
  2240     0DBA  1003               	clrc
  2241     0DBB  0D72               	rlf	___fltol@f1+2,w
  2242     0DBC  0D73               	rlf	___fltol@f1+3,w
  2243     0DBD  00F9               	movwf	___fltol@exp1
  2244     0DBE  0879               	movf	___fltol@exp1,w
  2245     0DBF  1D03               	btfss	3,2
  2246     0DC0  2DC2               	goto	u1611
  2247     0DC1  2DC3               	goto	u1610
  2248     0DC2                     u1611:
  2249     0DC2  2DCC               	goto	l1764
  2250     0DC3                     u1610:
  2251     0DC3                     l1760:
  2252     0DC3  3000               	movlw	0
  2253     0DC4  00F3               	movwf	?___fltol+3
  2254     0DC5  3000               	movlw	0
  2255     0DC6  00F2               	movwf	?___fltol+2
  2256     0DC7  3000               	movlw	0
  2257     0DC8  00F1               	movwf	?___fltol+1
  2258     0DC9  3000               	movlw	0
  2259     0DCA  00F0               	movwf	?___fltol
  2260     0DCB  2E29               	goto	l522
  2261     0DCC                     l1764:
  2262     0DCC  0870               	movf	___fltol@f1,w
  2263     0DCD  00F4               	movwf	??___fltol
  2264     0DCE  0871               	movf	___fltol@f1+1,w
  2265     0DCF  00F5               	movwf	??___fltol+1
  2266     0DD0  0872               	movf	___fltol@f1+2,w
  2267     0DD1  00F6               	movwf	??___fltol+2
  2268     0DD2  0873               	movf	___fltol@f1+3,w
  2269     0DD3  00F7               	movwf	??___fltol+3
  2270     0DD4  301F               	movlw	31
  2271     0DD5                     u1625:
  2272     0DD5  36F7               	lsrf	??___fltol+3,f
  2273     0DD6  0CF6               	rrf	??___fltol+2,f
  2274     0DD7  0CF5               	rrf	??___fltol+1,f
  2275     0DD8  0CF4               	rrf	??___fltol,f
  2276     0DD9                     u1620:
  2277     0DD9  0B89               	decfsz	9,f
  2278     0DDA  2DD5               	goto	u1625
  2279     0DDB  0874               	movf	??___fltol,w
  2280     0DDC  00F8               	movwf	___fltol@sign1
  2281     0DDD                     l1766:
  2282     0DDD  17F2               	bsf	___fltol@f1+2,7
  2283     0DDE                     l1768:
  2284     0DDE  30FF               	movlw	255
  2285     0DDF  05F0               	andwf	___fltol@f1,f
  2286     0DE0  30FF               	movlw	255
  2287     0DE1  05F1               	andwf	___fltol@f1+1,f
  2288     0DE2  30FF               	movlw	255
  2289     0DE3  05F2               	andwf	___fltol@f1+2,f
  2290     0DE4  3000               	movlw	0
  2291     0DE5  05F3               	andwf	___fltol@f1+3,f
  2292     0DE6                     l1770:
  2293     0DE6  3096               	movlw	150
  2294     0DE7  02F9               	subwf	___fltol@exp1,f
  2295     0DE8                     l1772:
  2296     0DE8  1FF9               	btfss	___fltol@exp1,7
  2297     0DE9  2DEB               	goto	u1631
  2298     0DEA  2DEC               	goto	u1630
  2299     0DEB                     u1631:
  2300     0DEB  2E04               	goto	l1782
  2301     0DEC                     u1630:
  2302     0DEC                     l1774:
  2303     0DEC  0879               	movf	___fltol@exp1,w
  2304     0DED  3A80               	xorlw	128
  2305     0DEE  3E97               	addlw	151
  2306     0DEF  1803               	skipnc
  2307     0DF0  2DF2               	goto	u1641
  2308     0DF1  2DF3               	goto	u1640
  2309     0DF2                     u1641:
  2310     0DF2  2DF4               	goto	l1780
  2311     0DF3                     u1640:
  2312     0DF3  2DC3               	goto	l1760
  2313     0DF4                     l1780:
  2314     0DF4  3001               	movlw	1
  2315     0DF5                     u1655:
  2316     0DF5  36F3               	lsrf	___fltol@f1+3,f
  2317     0DF6  0CF2               	rrf	___fltol@f1+2,f
  2318     0DF7  0CF1               	rrf	___fltol@f1+1,f
  2319     0DF8  0CF0               	rrf	___fltol@f1,f
  2320     0DF9  0B89               	decfsz	9,f
  2321     0DFA  2DF5               	goto	u1655
  2322     0DFB  3001               	movlw	1
  2323     0DFC  00F4               	movwf	??___fltol
  2324     0DFD  0874               	movf	??___fltol,w
  2325     0DFE  07F9               	addwf	___fltol@exp1,f
  2326     0DFF  1D03               	btfss	3,2
  2327     0E00  2E02               	goto	u1661
  2328     0E01  2E03               	goto	u1660
  2329     0E02                     u1661:
  2330     0E02  2DF4               	goto	l1780
  2331     0E03                     u1660:
  2332     0E03  2E19               	goto	l1790
  2333     0E04                     l1782:
  2334     0E04  3020               	movlw	32
  2335     0E05  0279               	subwf	___fltol@exp1,w
  2336     0E06  1C03               	skipc
  2337     0E07  2E09               	goto	u1671
  2338     0E08  2E0A               	goto	u1670
  2339     0E09                     u1671:
  2340     0E09  2E14               	goto	l529
  2341     0E0A                     u1670:
  2342     0E0A  2DC3               	goto	l1760
  2343     0E0B                     l1788:
  2344     0E0B  3001               	movlw	1
  2345     0E0C                     u1685:
  2346     0E0C  35F0               	lslf	___fltol@f1,f
  2347     0E0D  0DF1               	rlf	___fltol@f1+1,f
  2348     0E0E  0DF2               	rlf	___fltol@f1+2,f
  2349     0E0F  0DF3               	rlf	___fltol@f1+3,f
  2350     0E10  0B89               	decfsz	9,f
  2351     0E11  2E0C               	goto	u1685
  2352     0E12  3001               	movlw	1
  2353     0E13  02F9               	subwf	___fltol@exp1,f
  2354     0E14                     l529:
  2355     0E14  0879               	movf	___fltol@exp1,w
  2356     0E15  1D03               	btfss	3,2
  2357     0E16  2E18               	goto	u1691
  2358     0E17  2E19               	goto	u1690
  2359     0E18                     u1691:
  2360     0E18  2E0B               	goto	l1788
  2361     0E19                     u1690:
  2362     0E19                     l1790:
  2363     0E19  0878               	movf	___fltol@sign1,w
  2364     0E1A  1903               	btfsc	3,2
  2365     0E1B  2E1D               	goto	u1701
  2366     0E1C  2E1E               	goto	u1700
  2367     0E1D                     u1701:
  2368     0E1D  2E29               	goto	l532
  2369     0E1E                     u1700:
  2370     0E1E                     l1792:
  2371     0E1E  09F0               	comf	___fltol@f1,f
  2372     0E1F  09F1               	comf	___fltol@f1+1,f
  2373     0E20  09F2               	comf	___fltol@f1+2,f
  2374     0E21  09F3               	comf	___fltol@f1+3,f
  2375     0E22  0AF0               	incf	___fltol@f1,f
  2376     0E23  1903               	skipnz
  2377     0E24  0AF1               	incf	___fltol@f1+1,f
  2378     0E25  1903               	skipnz
  2379     0E26  0AF2               	incf	___fltol@f1+2,f
  2380     0E27  1903               	skipnz
  2381     0E28  0AF3               	incf	___fltol@f1+3,f
  2382     0E29                     l532:
  2383     0E29                     l522:
  2384     0E29  0008               	return
  2385     0E2A                     __end_of___fltol:
  2386                           
  2387                           	psect	text5
  2388     05C2                     __ptext5:	
  2389 ;; *************** function ___flmul *****************
  2390 ;; Defined at:
  2391 ;;		line 8 in file "D:\Program Files\Microchip\xc8\v2.40\pic\sources\c99\common\sprcmul.c"
  2392 ;; Parameters:    Size  Location     Type
  2393 ;;  b               4   13[BANK0 ] long 
  2394 ;;  a               4   17[BANK0 ] long 
  2395 ;; Auto vars:     Size  Location     Type
  2396 ;;  prod            4   33[BANK0 ] struct .
  2397 ;;  grs             4   27[BANK0 ] unsigned long 
  2398 ;;  temp            2   37[BANK0 ] struct .
  2399 ;;  bexp            1   32[BANK0 ] unsigned char 
  2400 ;;  aexp            1   31[BANK0 ] unsigned char 
  2401 ;;  sign            1   26[BANK0 ] unsigned char 
  2402 ;; Return value:  Size  Location     Type
  2403 ;;                  4   13[BANK0 ] unsigned char 
  2404 ;; Registers used:
  2405 ;;		wreg, status,2, status,0, pclath, cstack
  2406 ;; Tracked objects:
  2407 ;;		On entry : 0/0
  2408 ;;		On exit  : 0/0
  2409 ;;		Unchanged: 0/0
  2410 ;; Data sizes:     COMMON   BANK0   BANK1   BANK2   BANK3   BANK4   BANK5   BANK6   BANK7   BANK8   BANK9  BANK10  BANK1
      +1  BANK12  BANK13  BANK14  BANK15  BANK16  BANK17  BANK18  BANK19  BANK20  BANK21  BANK22  BANK23  BANK24  BANK25
  2411 ;;      Params:         0       8       0       0       0       0       0       0       0       0       0       0       
      +0       0       0       0       0       0       0       0       0       0       0       0       0       0       0
  2412 ;;      Locals:         0      13       0       0       0       0       0       0       0       0       0       0       
      +0       0       0       0       0       0       0       0       0       0       0       0       0       0       0
  2413 ;;      Temps:          0       5       0       0       0       0       0       0       0       0       0       0       
      +0       0       0       0       0       0       0       0       0       0       0       0       0       0       0
  2414 ;;      Totals:         0      26       0       0       0       0       0       0       0       0       0       0       
      +0       0       0       0       0       0       0       0       0       0       0       0       0       0       0
  2415 ;;Total ram usage:       26 bytes
  2416 ;; Hardware stack levels used: 1
  2417 ;; Hardware stack levels required when called: 1
  2418 ;; This function calls:
  2419 ;;		__Umul8_16
  2420 ;; This function is called by:
  2421 ;;		_Servo5
  2422 ;;		_Servo12
  2423 ;; This function uses a non-reentrant model
  2424 ;;
  2425                           
  2426     05C2                     ___flmul:	
  2427                           ;psect for function ___flmul
  2428                           
  2429     05C2                     l2128:	
  2430                           ;incstack = 0
  2431                           ; Regs used in ___flmul: [wreg+status,2+status,0+pclath+cstack]
  2432                           
  2433     05C2  0020               	movlb	0	; select bank0
  2434     05C3  0830               	movf	___flmul@b+3,w
  2435     05C4  3980               	andlw	128
  2436     05C5  00BA               	movwf	___flmul@sign
  2437     05C6                     l2130:
  2438     05C6  3530               	lslf	___flmul@b+3,w
  2439     05C7  00C0               	movwf	___flmul@bexp
  2440     05C8                     l2132:
  2441     05C8  1FAF               	btfss	___flmul@b+2,7
  2442     05C9  2DCB               	goto	u2431
  2443     05CA  2DCC               	goto	u2430
  2444     05CB                     u2431:
  2445     05CB  2DCD               	goto	l2136
  2446     05CC                     u2430:
  2447     05CC                     l2134:
  2448     05CC  1440               	bsf	___flmul@bexp,0
  2449     05CD                     l2136:
  2450     05CD  0840               	movf	___flmul@bexp,w
  2451     05CE  1903               	btfsc	3,2
  2452     05CF  2DD1               	goto	u2441
  2453     05D0  2DD2               	goto	u2440
  2454     05D1                     u2441:
  2455     05D1  2DE1               	goto	l2144
  2456     05D2                     u2440:
  2457     05D2                     l2138:
  2458     05D2  0A40               	incf	___flmul@bexp,w
  2459     05D3  1D03               	btfss	3,2
  2460     05D4  2DD6               	goto	u2451
  2461     05D5  2DD7               	goto	u2450
  2462     05D6                     u2451:
  2463     05D6  2DDF               	goto	l2142
  2464     05D7                     u2450:
  2465     05D7                     l2140:
  2466     05D7  3000               	movlw	0
  2467     05D8  00B0               	movwf	___flmul@b+3
  2468     05D9  3000               	movlw	0
  2469     05DA  00AF               	movwf	___flmul@b+2
  2470     05DB  3000               	movlw	0
  2471     05DC  00AE               	movwf	___flmul@b+1
  2472     05DD  3000               	movlw	0
  2473     05DE  00AD               	movwf	___flmul@b
  2474     05DF                     l2142:
  2475     05DF  17AF               	bsf	___flmul@b+2,7
  2476     05E0  2DE9               	goto	l2146
  2477     05E1                     l2144:
  2478     05E1  3000               	movlw	0
  2479     05E2  00B0               	movwf	___flmul@b+3
  2480     05E3  3000               	movlw	0
  2481     05E4  00AF               	movwf	___flmul@b+2
  2482     05E5  3000               	movlw	0
  2483     05E6  00AE               	movwf	___flmul@b+1
  2484     05E7  3000               	movlw	0
  2485     05E8  00AD               	movwf	___flmul@b
  2486     05E9                     l2146:
  2487     05E9  0834               	movf	___flmul@a+3,w
  2488     05EA  3980               	andlw	128
  2489     05EB  00B5               	movwf	??___flmul
  2490     05EC  0835               	movf	??___flmul,w
  2491     05ED  06BA               	xorwf	___flmul@sign,f
  2492     05EE                     l2148:
  2493     05EE  3534               	lslf	___flmul@a+3,w
  2494     05EF  00BF               	movwf	___flmul@aexp
  2495     05F0                     l2150:
  2496     05F0  1FB3               	btfss	___flmul@a+2,7
  2497     05F1  2DF3               	goto	u2461
  2498     05F2  2DF4               	goto	u2460
  2499     05F3                     u2461:
  2500     05F3  2DF5               	goto	l2154
  2501     05F4                     u2460:
  2502     05F4                     l2152:
  2503     05F4  143F               	bsf	___flmul@aexp,0
  2504     05F5                     l2154:
  2505     05F5  083F               	movf	___flmul@aexp,w
  2506     05F6  1903               	btfsc	3,2
  2507     05F7  2DF9               	goto	u2471
  2508     05F8  2DFA               	goto	u2470
  2509     05F9                     u2471:
  2510     05F9  2E09               	goto	l2162
  2511     05FA                     u2470:
  2512     05FA                     l2156:
  2513     05FA  0A3F               	incf	___flmul@aexp,w
  2514     05FB  1D03               	btfss	3,2
  2515     05FC  2DFE               	goto	u2481
  2516     05FD  2DFF               	goto	u2480
  2517     05FE                     u2481:
  2518     05FE  2E07               	goto	l2160
  2519     05FF                     u2480:
  2520     05FF                     l2158:
  2521     05FF  3000               	movlw	0
  2522     0600  00B4               	movwf	___flmul@a+3
  2523     0601  3000               	movlw	0
  2524     0602  00B3               	movwf	___flmul@a+2
  2525     0603  3000               	movlw	0
  2526     0604  00B2               	movwf	___flmul@a+1
  2527     0605  3000               	movlw	0
  2528     0606  00B1               	movwf	___flmul@a
  2529     0607                     l2160:
  2530     0607  17B3               	bsf	___flmul@a+2,7
  2531     0608  2E11               	goto	l2164
  2532     0609                     l2162:
  2533     0609  3000               	movlw	0
  2534     060A  00B4               	movwf	___flmul@a+3
  2535     060B  3000               	movlw	0
  2536     060C  00B3               	movwf	___flmul@a+2
  2537     060D  3000               	movlw	0
  2538     060E  00B2               	movwf	___flmul@a+1
  2539     060F  3000               	movlw	0
  2540     0610  00B1               	movwf	___flmul@a
  2541     0611                     l2164:
  2542     0611  083F               	movf	___flmul@aexp,w
  2543     0612  1903               	btfsc	3,2
  2544     0613  2E15               	goto	u2491
  2545     0614  2E16               	goto	u2490
  2546     0615                     u2491:
  2547     0615  2E1B               	goto	l2168
  2548     0616                     u2490:
  2549     0616                     l2166:
  2550     0616  0840               	movf	___flmul@bexp,w
  2551     0617  1D03               	btfss	3,2
  2552     0618  2E1A               	goto	u2501
  2553     0619  2E1B               	goto	u2500
  2554     061A                     u2501:
  2555     061A  2E24               	goto	l2172
  2556     061B                     u2500:
  2557     061B                     l2168:
  2558     061B  3000               	movlw	0
  2559     061C  00B0               	movwf	?___flmul+3
  2560     061D  3000               	movlw	0
  2561     061E  00AF               	movwf	?___flmul+2
  2562     061F  3000               	movlw	0
  2563     0620  00AE               	movwf	?___flmul+1
  2564     0621  3000               	movlw	0
  2565     0622  00AD               	movwf	?___flmul
  2566     0623  2FFC               	goto	l725
  2567     0624                     l2172:
  2568     0624  082D               	movf	___flmul@b,w
  2569     0625  00F0               	movwf	__Umul8_16@multiplicand
  2570     0626  0833               	movf	___flmul@a+2,w
  2571     0627  3180  2011  3185   	fcall	__Umul8_16
  2572     062A  0871               	movf	?__Umul8_16+1,w
  2573     062B  0020               	movlb	0	; select bank0
  2574     062C  00C6               	movwf	___flmul@temp+1
  2575     062D  0870               	movf	?__Umul8_16,w
  2576     062E  00C5               	movwf	___flmul@temp
  2577     062F                     l2174:
  2578     062F  0845               	movf	___flmul@temp,w
  2579     0630  00B5               	movwf	??___flmul
  2580     0631  01B6               	clrf	??___flmul+1
  2581     0632  01B7               	clrf	??___flmul+2
  2582     0633  01B8               	clrf	??___flmul+3
  2583     0634  0838               	movf	??___flmul+3,w
  2584     0635  00BE               	movwf	___flmul@grs+3
  2585     0636  0837               	movf	??___flmul+2,w
  2586     0637  00BD               	movwf	___flmul@grs+2
  2587     0638  0836               	movf	??___flmul+1,w
  2588     0639  00BC               	movwf	___flmul@grs+1
  2589     063A  0835               	movf	??___flmul,w
  2590     063B  00BB               	movwf	___flmul@grs
  2591     063C                     l2176:
  2592     063C  0846               	movf	___flmul@temp+1,w
  2593     063D  00B5               	movwf	??___flmul
  2594     063E  01B6               	clrf	??___flmul+1
  2595     063F  01B7               	clrf	??___flmul+2
  2596     0640  01B8               	clrf	??___flmul+3
  2597     0641  0838               	movf	??___flmul+3,w
  2598     0642  00C4               	movwf	___flmul@prod+3
  2599     0643  0837               	movf	??___flmul+2,w
  2600     0644  00C3               	movwf	___flmul@prod+2
  2601     0645  0836               	movf	??___flmul+1,w
  2602     0646  00C2               	movwf	___flmul@prod+1
  2603     0647  0835               	movf	??___flmul,w
  2604     0648  00C1               	movwf	___flmul@prod
  2605     0649  082E               	movf	___flmul@b+1,w
  2606     064A  00F0               	movwf	__Umul8_16@multiplicand
  2607     064B  0832               	movf	___flmul@a+1,w
  2608     064C  3180  2011  3185   	fcall	__Umul8_16
  2609     064F  0871               	movf	?__Umul8_16+1,w
  2610     0650  0020               	movlb	0	; select bank0
  2611     0651  00C6               	movwf	___flmul@temp+1
  2612     0652  0870               	movf	?__Umul8_16,w
  2613     0653  00C5               	movwf	___flmul@temp
  2614     0654                     l2178:
  2615     0654  0845               	movf	___flmul@temp,w
  2616     0655  00B5               	movwf	??___flmul
  2617     0656  01B6               	clrf	??___flmul+1
  2618     0657  01B7               	clrf	??___flmul+2
  2619     0658  01B8               	clrf	??___flmul+3
  2620     0659  0835               	movf	??___flmul,w
  2621     065A  07BB               	addwf	___flmul@grs,f
  2622     065B  0836               	movf	??___flmul+1,w
  2623     065C  3DBC               	addwfc	___flmul@grs+1,f
  2624     065D  0837               	movf	??___flmul+2,w
  2625     065E  3DBD               	addwfc	___flmul@grs+2,f
  2626     065F  0838               	movf	??___flmul+3,w
  2627     0660  3DBE               	addwfc	___flmul@grs+3,f
  2628     0661                     l2180:
  2629     0661  0846               	movf	___flmul@temp+1,w
  2630     0662  00B5               	movwf	??___flmul
  2631     0663  01B6               	clrf	??___flmul+1
  2632     0664  01B7               	clrf	??___flmul+2
  2633     0665  01B8               	clrf	??___flmul+3
  2634     0666  0835               	movf	??___flmul,w
  2635     0667  07C1               	addwf	___flmul@prod,f
  2636     0668  0836               	movf	??___flmul+1,w
  2637     0669  3DC2               	addwfc	___flmul@prod+1,f
  2638     066A  0837               	movf	??___flmul+2,w
  2639     066B  3DC3               	addwfc	___flmul@prod+2,f
  2640     066C  0838               	movf	??___flmul+3,w
  2641     066D  3DC4               	addwfc	___flmul@prod+3,f
  2642     066E  082F               	movf	___flmul@b+2,w
  2643     066F  00F0               	movwf	__Umul8_16@multiplicand
  2644     0670  0831               	movf	___flmul@a,w
  2645     0671  3180  2011  3185   	fcall	__Umul8_16
  2646     0674  0871               	movf	?__Umul8_16+1,w
  2647     0675  0020               	movlb	0	; select bank0
  2648     0676  00C6               	movwf	___flmul@temp+1
  2649     0677  0870               	movf	?__Umul8_16,w
  2650     0678  00C5               	movwf	___flmul@temp
  2651     0679                     l2182:
  2652     0679  0845               	movf	___flmul@temp,w
  2653     067A  00B5               	movwf	??___flmul
  2654     067B  01B6               	clrf	??___flmul+1
  2655     067C  01B7               	clrf	??___flmul+2
  2656     067D  01B8               	clrf	??___flmul+3
  2657     067E  0835               	movf	??___flmul,w
  2658     067F  07BB               	addwf	___flmul@grs,f
  2659     0680  0836               	movf	??___flmul+1,w
  2660     0681  3DBC               	addwfc	___flmul@grs+1,f
  2661     0682  0837               	movf	??___flmul+2,w
  2662     0683  3DBD               	addwfc	___flmul@grs+2,f
  2663     0684  0838               	movf	??___flmul+3,w
  2664     0685  3DBE               	addwfc	___flmul@grs+3,f
  2665     0686                     l2184:
  2666     0686  0846               	movf	___flmul@temp+1,w
  2667     0687  00B5               	movwf	??___flmul
  2668     0688  01B6               	clrf	??___flmul+1
  2669     0689  01B7               	clrf	??___flmul+2
  2670     068A  01B8               	clrf	??___flmul+3
  2671     068B  0835               	movf	??___flmul,w
  2672     068C  07C1               	addwf	___flmul@prod,f
  2673     068D  0836               	movf	??___flmul+1,w
  2674     068E  3DC2               	addwfc	___flmul@prod+1,f
  2675     068F  0837               	movf	??___flmul+2,w
  2676     0690  3DC3               	addwfc	___flmul@prod+2,f
  2677     0691  0838               	movf	??___flmul+3,w
  2678     0692  3DC4               	addwfc	___flmul@prod+3,f
  2679     0693                     l2186:
  2680     0693  3008               	movlw	8
  2681     0694                     u2515:
  2682     0694  35BB               	lslf	___flmul@grs,f
  2683     0695  0DBC               	rlf	___flmul@grs+1,f
  2684     0696  0DBD               	rlf	___flmul@grs+2,f
  2685     0697  0DBE               	rlf	___flmul@grs+3,f
  2686     0698  0B89               	decfsz	9,f
  2687     0699  2E94               	goto	u2515
  2688     069A                     l2188:
  2689     069A  082E               	movf	___flmul@b+1,w
  2690     069B  00F0               	movwf	__Umul8_16@multiplicand
  2691     069C  0831               	movf	___flmul@a,w
  2692     069D  3180  2011  3185   	fcall	__Umul8_16
  2693     06A0  0871               	movf	?__Umul8_16+1,w
  2694     06A1  0020               	movlb	0	; select bank0
  2695     06A2  00C6               	movwf	___flmul@temp+1
  2696     06A3  0870               	movf	?__Umul8_16,w
  2697     06A4  00C5               	movwf	___flmul@temp
  2698     06A5                     l2190:
  2699     06A5  0845               	movf	___flmul@temp,w
  2700     06A6  07BB               	addwf	___flmul@grs,f
  2701     06A7  0846               	movf	___flmul@temp+1,w
  2702     06A8  3DBC               	addwfc	___flmul@grs+1,f
  2703     06A9  3000               	movlw	0
  2704     06AA  3DBD               	addwfc	___flmul@grs+2,f
  2705     06AB  3DBE               	addwfc	___flmul@grs+3,f
  2706     06AC                     l2192:
  2707     06AC  082D               	movf	___flmul@b,w
  2708     06AD  00F0               	movwf	__Umul8_16@multiplicand
  2709     06AE  0832               	movf	___flmul@a+1,w
  2710     06AF  3180  2011  3185   	fcall	__Umul8_16
  2711     06B2  0871               	movf	?__Umul8_16+1,w
  2712     06B3  0020               	movlb	0	; select bank0
  2713     06B4  00C6               	movwf	___flmul@temp+1
  2714     06B5  0870               	movf	?__Umul8_16,w
  2715     06B6  00C5               	movwf	___flmul@temp
  2716     06B7                     l2194:
  2717     06B7  0845               	movf	___flmul@temp,w
  2718     06B8  07BB               	addwf	___flmul@grs,f
  2719     06B9  0846               	movf	___flmul@temp+1,w
  2720     06BA  3DBC               	addwfc	___flmul@grs+1,f
  2721     06BB  3000               	movlw	0
  2722     06BC  3DBD               	addwfc	___flmul@grs+2,f
  2723     06BD  3DBE               	addwfc	___flmul@grs+3,f
  2724     06BE                     l2196:
  2725     06BE  3008               	movlw	8
  2726     06BF                     u2525:
  2727     06BF  35BB               	lslf	___flmul@grs,f
  2728     06C0  0DBC               	rlf	___flmul@grs+1,f
  2729     06C1  0DBD               	rlf	___flmul@grs+2,f
  2730     06C2  0DBE               	rlf	___flmul@grs+3,f
  2731     06C3  0B89               	decfsz	9,f
  2732     06C4  2EBF               	goto	u2525
  2733     06C5  082D               	movf	___flmul@b,w
  2734     06C6  00F0               	movwf	__Umul8_16@multiplicand
  2735     06C7  0831               	movf	___flmul@a,w
  2736     06C8  3180  2011  3185   	fcall	__Umul8_16
  2737     06CB  0871               	movf	?__Umul8_16+1,w
  2738     06CC  0020               	movlb	0	; select bank0
  2739     06CD  00C6               	movwf	___flmul@temp+1
  2740     06CE  0870               	movf	?__Umul8_16,w
  2741     06CF  00C5               	movwf	___flmul@temp
  2742     06D0                     l2198:
  2743     06D0  0845               	movf	___flmul@temp,w
  2744     06D1  07BB               	addwf	___flmul@grs,f
  2745     06D2  0846               	movf	___flmul@temp+1,w
  2746     06D3  3DBC               	addwfc	___flmul@grs+1,f
  2747     06D4  3000               	movlw	0
  2748     06D5  3DBD               	addwfc	___flmul@grs+2,f
  2749     06D6  3DBE               	addwfc	___flmul@grs+3,f
  2750     06D7                     l2200:
  2751     06D7  082E               	movf	___flmul@b+1,w
  2752     06D8  00F0               	movwf	__Umul8_16@multiplicand
  2753     06D9  0833               	movf	___flmul@a+2,w
  2754     06DA  3180  2011  3185   	fcall	__Umul8_16
  2755     06DD  0871               	movf	?__Umul8_16+1,w
  2756     06DE  0020               	movlb	0	; select bank0
  2757     06DF  00C6               	movwf	___flmul@temp+1
  2758     06E0  0870               	movf	?__Umul8_16,w
  2759     06E1  00C5               	movwf	___flmul@temp
  2760     06E2  0845               	movf	___flmul@temp,w
  2761     06E3  07C1               	addwf	___flmul@prod,f
  2762     06E4  0846               	movf	___flmul@temp+1,w
  2763     06E5  3DC2               	addwfc	___flmul@prod+1,f
  2764     06E6  3000               	movlw	0
  2765     06E7  3DC3               	addwfc	___flmul@prod+2,f
  2766     06E8  3DC4               	addwfc	___flmul@prod+3,f
  2767     06E9                     l2202:
  2768     06E9  082F               	movf	___flmul@b+2,w
  2769     06EA  00F0               	movwf	__Umul8_16@multiplicand
  2770     06EB  0832               	movf	___flmul@a+1,w
  2771     06EC  3180  2011  3185   	fcall	__Umul8_16
  2772     06EF  0871               	movf	?__Umul8_16+1,w
  2773     06F0  0020               	movlb	0	; select bank0
  2774     06F1  00C6               	movwf	___flmul@temp+1
  2775     06F2  0870               	movf	?__Umul8_16,w
  2776     06F3  00C5               	movwf	___flmul@temp
  2777     06F4                     l2204:
  2778     06F4  0845               	movf	___flmul@temp,w
  2779     06F5  07C1               	addwf	___flmul@prod,f
  2780     06F6  0846               	movf	___flmul@temp+1,w
  2781     06F7  3DC2               	addwfc	___flmul@prod+1,f
  2782     06F8  3000               	movlw	0
  2783     06F9  3DC3               	addwfc	___flmul@prod+2,f
  2784     06FA  3DC4               	addwfc	___flmul@prod+3,f
  2785     06FB  082F               	movf	___flmul@b+2,w
  2786     06FC  00F0               	movwf	__Umul8_16@multiplicand
  2787     06FD  0833               	movf	___flmul@a+2,w
  2788     06FE  3180  2011  3185   	fcall	__Umul8_16
  2789     0701  0871               	movf	?__Umul8_16+1,w
  2790     0702  0020               	movlb	0	; select bank0
  2791     0703  00C6               	movwf	___flmul@temp+1
  2792     0704  0870               	movf	?__Umul8_16,w
  2793     0705  00C5               	movwf	___flmul@temp
  2794     0706                     l2206:
  2795     0706  0845               	movf	___flmul@temp,w
  2796     0707  00B5               	movwf	??___flmul
  2797     0708  0846               	movf	___flmul@temp+1,w
  2798     0709  00B6               	movwf	??___flmul+1
  2799     070A  01B7               	clrf	??___flmul+2
  2800     070B  01B8               	clrf	??___flmul+3
  2801     070C  3008               	movlw	8
  2802     070D                     u2535:
  2803     070D  35B5               	lslf	??___flmul,f
  2804     070E  0DB6               	rlf	??___flmul+1,f
  2805     070F  0DB7               	rlf	??___flmul+2,f
  2806     0710  0DB8               	rlf	??___flmul+3,f
  2807     0711                     u2530:
  2808     0711  0B89               	decfsz	9,f
  2809     0712  2F0D               	goto	u2535
  2810     0713  0835               	movf	??___flmul,w
  2811     0714  07C1               	addwf	___flmul@prod,f
  2812     0715  0836               	movf	??___flmul+1,w
  2813     0716  3DC2               	addwfc	___flmul@prod+1,f
  2814     0717  0837               	movf	??___flmul+2,w
  2815     0718  3DC3               	addwfc	___flmul@prod+2,f
  2816     0719  0838               	movf	??___flmul+3,w
  2817     071A  3DC4               	addwfc	___flmul@prod+3,f
  2818     071B                     l2208:
  2819     071B  083B               	movf	___flmul@grs,w
  2820     071C  00B5               	movwf	??___flmul
  2821     071D  083C               	movf	___flmul@grs+1,w
  2822     071E  00B6               	movwf	??___flmul+1
  2823     071F  083D               	movf	___flmul@grs+2,w
  2824     0720  00B7               	movwf	??___flmul+2
  2825     0721  083E               	movf	___flmul@grs+3,w
  2826     0722  00B8               	movwf	??___flmul+3
  2827     0723  3018               	movlw	24
  2828     0724                     u2545:
  2829     0724  36B8               	lsrf	??___flmul+3,f
  2830     0725  0CB7               	rrf	??___flmul+2,f
  2831     0726  0CB6               	rrf	??___flmul+1,f
  2832     0727  0CB5               	rrf	??___flmul,f
  2833     0728                     u2540:
  2834     0728  0B89               	decfsz	9,f
  2835     0729  2F24               	goto	u2545
  2836     072A  0835               	movf	??___flmul,w
  2837     072B  07C1               	addwf	___flmul@prod,f
  2838     072C  0836               	movf	??___flmul+1,w
  2839     072D  3DC2               	addwfc	___flmul@prod+1,f
  2840     072E  0837               	movf	??___flmul+2,w
  2841     072F  3DC3               	addwfc	___flmul@prod+2,f
  2842     0730  0838               	movf	??___flmul+3,w
  2843     0731  3DC4               	addwfc	___flmul@prod+3,f
  2844     0732                     l2210:
  2845     0732  3008               	movlw	8
  2846     0733                     u2555:
  2847     0733  35BB               	lslf	___flmul@grs,f
  2848     0734  0DBC               	rlf	___flmul@grs+1,f
  2849     0735  0DBD               	rlf	___flmul@grs+2,f
  2850     0736  0DBE               	rlf	___flmul@grs+3,f
  2851     0737  0B89               	decfsz	9,f
  2852     0738  2F33               	goto	u2555
  2853     0739                     l2212:
  2854     0739  0840               	movf	___flmul@bexp,w
  2855     073A  073F               	addwf	___flmul@aexp,w
  2856     073B  00B5               	movwf	??___flmul
  2857     073C  01B6               	clrf	??___flmul+1
  2858     073D  0DB6               	rlf	??___flmul+1,f
  2859     073E  0835               	movf	??___flmul,w
  2860     073F  3E82               	addlw	130
  2861     0740  00C5               	movwf	___flmul@temp
  2862     0741  30FF               	movlw	255
  2863     0742  3D36               	addwfc	??___flmul+1,w
  2864     0743  00C6               	movwf	___flmul@temp+1
  2865     0744  2F5C               	goto	l2224
  2866     0745                     l2214:
  2867     0745  3001               	movlw	1
  2868     0746                     u2565:
  2869     0746  35C1               	lslf	___flmul@prod,f
  2870     0747  0DC2               	rlf	___flmul@prod+1,f
  2871     0748  0DC3               	rlf	___flmul@prod+2,f
  2872     0749  0DC4               	rlf	___flmul@prod+3,f
  2873     074A  0B89               	decfsz	9,f
  2874     074B  2F46               	goto	u2565
  2875     074C                     l2216:
  2876     074C  1FBE               	btfss	___flmul@grs+3,7
  2877     074D  2F4F               	goto	u2571
  2878     074E  2F50               	goto	u2570
  2879     074F                     u2571:
  2880     074F  2F51               	goto	l2220
  2881     0750                     u2570:
  2882     0750                     l2218:
  2883     0750  1441               	bsf	___flmul@prod,0
  2884     0751                     l2220:
  2885     0751  3001               	movlw	1
  2886     0752                     u2585:
  2887     0752  35BB               	lslf	___flmul@grs,f
  2888     0753  0DBC               	rlf	___flmul@grs+1,f
  2889     0754  0DBD               	rlf	___flmul@grs+2,f
  2890     0755  0DBE               	rlf	___flmul@grs+3,f
  2891     0756  0B89               	decfsz	9,f
  2892     0757  2F52               	goto	u2585
  2893     0758                     l2222:
  2894     0758  30FF               	movlw	255
  2895     0759  07C5               	addwf	___flmul@temp,f
  2896     075A  30FF               	movlw	255
  2897     075B  3DC6               	addwfc	___flmul@temp+1,f
  2898     075C                     l2224:
  2899     075C  1FC3               	btfss	___flmul@prod+2,7
  2900     075D  2F5F               	goto	u2591
  2901     075E  2F60               	goto	u2590
  2902     075F                     u2591:
  2903     075F  2F45               	goto	l2214
  2904     0760                     u2590:
  2905     0760                     l2226:
  2906     0760  01BF               	clrf	___flmul@aexp
  2907     0761                     l2228:
  2908     0761  1FBE               	btfss	___flmul@grs+3,7
  2909     0762  2F64               	goto	u2601
  2910     0763  2F65               	goto	u2600
  2911     0764                     u2601:
  2912     0764  2F81               	goto	l2236
  2913     0765                     u2600:
  2914     0765                     l2230:
  2915     0765  30FF               	movlw	255
  2916     0766  053B               	andwf	___flmul@grs,w
  2917     0767  00B5               	movwf	??___flmul
  2918     0768  30FF               	movlw	255
  2919     0769  053C               	andwf	___flmul@grs+1,w
  2920     076A  00B6               	movwf	??___flmul+1
  2921     076B  30FF               	movlw	255
  2922     076C  053D               	andwf	___flmul@grs+2,w
  2923     076D  00B7               	movwf	??___flmul+2
  2924     076E  307F               	movlw	127
  2925     076F  053E               	andwf	___flmul@grs+3,w
  2926     0770  00B8               	movwf	??___flmul+3
  2927     0771  0838               	movf	??___flmul+3,w
  2928     0772  0437               	iorwf	??___flmul+2,w
  2929     0773  0436               	iorwf	??___flmul+1,w
  2930     0774  0435               	iorwf	??___flmul,w
  2931     0775  1903               	skipnz
  2932     0776  2F78               	goto	u2611
  2933     0777  2F79               	goto	u2610
  2934     0778                     u2611:
  2935     0778  2F7C               	goto	l731
  2936     0779                     u2610:
  2937     0779                     l2232:
  2938     0779  01BF               	clrf	___flmul@aexp
  2939     077A  0ABF               	incf	___flmul@aexp,f
  2940     077B  2F81               	goto	l2236
  2941     077C                     l731:
  2942     077C  1C41               	btfss	___flmul@prod,0
  2943     077D  2F7F               	goto	u2621
  2944     077E  2F80               	goto	u2620
  2945     077F                     u2621:
  2946     077F  2F81               	goto	l2236
  2947     0780                     u2620:
  2948     0780  2F79               	goto	l2232
  2949     0781                     l2236:
  2950     0781  083F               	movf	___flmul@aexp,w
  2951     0782  1903               	btfsc	3,2
  2952     0783  2F85               	goto	u2631
  2953     0784  2F86               	goto	u2630
  2954     0785                     u2631:
  2955     0785  2FAE               	goto	l2246
  2956     0786                     u2630:
  2957     0786                     l2238:
  2958     0786  3001               	movlw	1
  2959     0787  07C1               	addwf	___flmul@prod,f
  2960     0788  3000               	movlw	0
  2961     0789  3DC2               	addwfc	___flmul@prod+1,f
  2962     078A  3000               	movlw	0
  2963     078B  3DC3               	addwfc	___flmul@prod+2,f
  2964     078C  3000               	movlw	0
  2965     078D  3DC4               	addwfc	___flmul@prod+3,f
  2966     078E                     l2240:
  2967     078E  1C44               	btfss	___flmul@prod+3,0
  2968     078F  2F91               	goto	u2641
  2969     0790  2F92               	goto	u2640
  2970     0791                     u2641:
  2971     0791  2FAE               	goto	l2246
  2972     0792                     u2640:
  2973     0792                     l2242:
  2974     0792  0841               	movf	___flmul@prod,w
  2975     0793  00B5               	movwf	??___flmul
  2976     0794  0842               	movf	___flmul@prod+1,w
  2977     0795  00B6               	movwf	??___flmul+1
  2978     0796  0843               	movf	___flmul@prod+2,w
  2979     0797  00B7               	movwf	??___flmul+2
  2980     0798  0844               	movf	___flmul@prod+3,w
  2981     0799  00B8               	movwf	??___flmul+3
  2982     079A  3001               	movlw	1
  2983     079B  00B9               	movwf	??___flmul+4
  2984     079C                     u2655:
  2985     079C  37B8               	asrf	??___flmul+3,f
  2986     079D  0CB7               	rrf	??___flmul+2,f
  2987     079E  0CB6               	rrf	??___flmul+1,f
  2988     079F  0CB5               	rrf	??___flmul,f
  2989     07A0                     u2650:
  2990     07A0  0BB9               	decfsz	??___flmul+4,f
  2991     07A1  2F9C               	goto	u2655
  2992     07A2  0838               	movf	??___flmul+3,w
  2993     07A3  00C4               	movwf	___flmul@prod+3
  2994     07A4  0837               	movf	??___flmul+2,w
  2995     07A5  00C3               	movwf	___flmul@prod+2
  2996     07A6  0836               	movf	??___flmul+1,w
  2997     07A7  00C2               	movwf	___flmul@prod+1
  2998     07A8  0835               	movf	??___flmul,w
  2999     07A9  00C1               	movwf	___flmul@prod
  3000     07AA                     l2244:
  3001     07AA  3001               	movlw	1
  3002     07AB  07C5               	addwf	___flmul@temp,f
  3003     07AC  3000               	movlw	0
  3004     07AD  3DC6               	addwfc	___flmul@temp+1,f
  3005     07AE                     l2246:
  3006     07AE  0846               	movf	___flmul@temp+1,w
  3007     07AF  3A80               	xorlw	128
  3008     07B0  00B5               	movwf	??___flmul
  3009     07B1  3080               	movlw	128
  3010     07B2  0235               	subwf	??___flmul,w
  3011     07B3  1D03               	skipz
  3012     07B4  2FB7               	goto	u2665
  3013     07B5  30FF               	movlw	255
  3014     07B6  0245               	subwf	___flmul@temp,w
  3015     07B7                     u2665:
  3016     07B7  1C03               	skipc
  3017     07B8  2FBA               	goto	u2661
  3018     07B9  2FBB               	goto	u2660
  3019     07BA                     u2661:
  3020     07BA  2FC5               	goto	l2250
  3021     07BB                     u2660:
  3022     07BB                     l2248:
  3023     07BB  307F               	movlw	127
  3024     07BC  0020               	movlb	0	; select bank0
  3025     07BD  00C4               	movwf	___flmul@prod+3
  3026     07BE  3080               	movlw	128
  3027     07BF  00C3               	movwf	___flmul@prod+2
  3028     07C0  3000               	movlw	0
  3029     07C1  00C2               	movwf	___flmul@prod+1
  3030     07C2  3000               	movlw	0
  3031     07C3  00C1               	movwf	___flmul@prod
  3032     07C4  2FF0               	goto	l737
  3033     07C5                     l2250:
  3034     07C5  0020               	movlb	0	; select bank0
  3035     07C6  0846               	movf	___flmul@temp+1,w
  3036     07C7  3A80               	xorlw	128
  3037     07C8  00B5               	movwf	??___flmul
  3038     07C9  3080               	movlw	128
  3039     07CA  0235               	subwf	??___flmul,w
  3040     07CB  1D03               	skipz
  3041     07CC  2FCF               	goto	u2675
  3042     07CD  3001               	movlw	1
  3043     07CE  0245               	subwf	___flmul@temp,w
  3044     07CF                     u2675:
  3045     07CF  1803               	skipnc
  3046     07D0  2FD2               	goto	u2671
  3047     07D1  2FD3               	goto	u2670
  3048     07D2                     u2671:
  3049     07D2  2FDE               	goto	l2256
  3050     07D3                     u2670:
  3051     07D3                     l2252:
  3052     07D3  3000               	movlw	0
  3053     07D4  0020               	movlb	0	; select bank0
  3054     07D5  00C4               	movwf	___flmul@prod+3
  3055     07D6  3000               	movlw	0
  3056     07D7  00C3               	movwf	___flmul@prod+2
  3057     07D8  3000               	movlw	0
  3058     07D9  00C2               	movwf	___flmul@prod+1
  3059     07DA  3000               	movlw	0
  3060     07DB  00C1               	movwf	___flmul@prod
  3061     07DC                     l2254:
  3062     07DC  01BA               	clrf	___flmul@sign
  3063     07DD  2FF0               	goto	l737
  3064     07DE                     l2256:
  3065     07DE  0020               	movlb	0	; select bank0
  3066     07DF  0845               	movf	___flmul@temp,w
  3067     07E0  00C0               	movwf	___flmul@bexp
  3068     07E1  30FF               	movlw	255
  3069     07E2  05C1               	andwf	___flmul@prod,f
  3070     07E3  30FF               	movlw	255
  3071     07E4  05C2               	andwf	___flmul@prod+1,f
  3072     07E5  307F               	movlw	127
  3073     07E6  05C3               	andwf	___flmul@prod+2,f
  3074     07E7  3000               	movlw	0
  3075     07E8  05C4               	andwf	___flmul@prod+3,f
  3076     07E9                     l2258:
  3077     07E9  1C40               	btfss	___flmul@bexp,0
  3078     07EA  2FEC               	goto	u2681
  3079     07EB  2FED               	goto	u2680
  3080     07EC                     u2681:
  3081     07EC  2FEE               	goto	l2262
  3082     07ED                     u2680:
  3083     07ED                     l2260:
  3084     07ED  17C3               	bsf	___flmul@prod+2,7
  3085     07EE                     l2262:
  3086     07EE  3640               	lsrf	___flmul@bexp,w
  3087     07EF  00C4               	movwf	___flmul@prod+3
  3088     07F0                     l737:
  3089     07F0  083A               	movf	___flmul@sign,w
  3090     07F1  00B5               	movwf	??___flmul
  3091     07F2  0835               	movf	??___flmul,w
  3092     07F3  04C4               	iorwf	___flmul@prod+3,f
  3093     07F4                     l2264:
  3094     07F4  0844               	movf	___flmul@prod+3,w
  3095     07F5  00B0               	movwf	?___flmul+3
  3096     07F6  0843               	movf	___flmul@prod+2,w
  3097     07F7  00AF               	movwf	?___flmul+2
  3098     07F8  0842               	movf	___flmul@prod+1,w
  3099     07F9  00AE               	movwf	?___flmul+1
  3100     07FA  0841               	movf	___flmul@prod,w
  3101     07FB  00AD               	movwf	?___flmul
  3102     07FC                     l725:
  3103     07FC  0008               	return
  3104     07FD                     __end_of___flmul:
  3105                           
  3106                           	psect	text6
  3107     0011                     __ptext6:	
  3108 ;; *************** function __Umul8_16 *****************
  3109 ;; Defined at:
  3110 ;;		line 4 in file "D:\Program Files\Microchip\xc8\v2.40\pic\sources\c99\common\Umul8_16.c"
  3111 ;; Parameters:    Size  Location     Type
  3112 ;;  multiplier      1    wreg     unsigned char 
  3113 ;;  multiplicand    1    0[COMMON] unsigned char 
  3114 ;; Auto vars:     Size  Location     Type
  3115 ;;  multiplier      1    8[COMMON] unsigned char 
  3116 ;;  word_mpld       2    6[COMMON] unsigned int 
  3117 ;;  product         2    4[COMMON] unsigned int 
  3118 ;; Return value:  Size  Location     Type
  3119 ;;                  2    0[COMMON] unsigned int 
  3120 ;; Registers used:
  3121 ;;		wreg, status,2, status,0
  3122 ;; Tracked objects:
  3123 ;;		On entry : 0/0
  3124 ;;		On exit  : 0/0
  3125 ;;		Unchanged: 0/0
  3126 ;; Data sizes:     COMMON   BANK0   BANK1   BANK2   BANK3   BANK4   BANK5   BANK6   BANK7   BANK8   BANK9  BANK10  BANK1
      +1  BANK12  BANK13  BANK14  BANK15  BANK16  BANK17  BANK18  BANK19  BANK20  BANK21  BANK22  BANK23  BANK24  BANK25
  3127 ;;      Params:         2       0       0       0       0       0       0       0       0       0       0       0       
      +0       0       0       0       0       0       0       0       0       0       0       0       0       0       0
  3128 ;;      Locals:         5       0       0       0       0       0       0       0       0       0       0       0       
      +0       0       0       0       0       0       0       0       0       0       0       0       0       0       0
  3129 ;;      Temps:          2       0       0       0       0       0       0       0       0       0       0       0       
      +0       0       0       0       0       0       0       0       0       0       0       0       0       0       0
  3130 ;;      Totals:         9       0       0       0       0       0       0       0       0       0       0       0       
      +0       0       0       0       0       0       0       0       0       0       0       0       0       0       0
  3131 ;;Total ram usage:        9 bytes
  3132 ;; Hardware stack levels used: 1
  3133 ;; This function calls:
  3134 ;;		Nothing
  3135 ;; This function is called by:
  3136 ;;		___flmul
  3137 ;; This function uses a non-reentrant model
  3138 ;;
  3139                           
  3140     0011                     __Umul8_16:	
  3141                           ;psect for function __Umul8_16
  3142                           
  3143                           
  3144                           ;incstack = 0
  3145                           ; Regs used in __Umul8_16: [wreg+status,2+status,0]
  3146                           ;__Umul8_16@multiplier stored from wreg
  3147     0011  00F8               	movwf	__Umul8_16@multiplier
  3148     0012                     l1724:
  3149     0012  01F4               	clrf	__Umul8_16@product
  3150     0013  01F5               	clrf	__Umul8_16@product+1
  3151     0014                     l1726:
  3152     0014  0870               	movf	__Umul8_16@multiplicand,w
  3153     0015  00F2               	movwf	??__Umul8_16
  3154     0016  01F3               	clrf	??__Umul8_16+1
  3155     0017  0872               	movf	??__Umul8_16,w
  3156     0018  00F6               	movwf	__Umul8_16@word_mpld
  3157     0019  0873               	movf	??__Umul8_16+1,w
  3158     001A  00F7               	movwf	__Umul8_16@word_mpld+1
  3159     001B                     l1728:
  3160     001B  1C78               	btfss	__Umul8_16@multiplier,0
  3161     001C  281E               	goto	u1531
  3162     001D  281F               	goto	u1530
  3163     001E                     u1531:
  3164     001E  2823               	goto	l744
  3165     001F                     u1530:
  3166     001F                     l1730:
  3167     001F  0876               	movf	__Umul8_16@word_mpld,w
  3168     0020  07F4               	addwf	__Umul8_16@product,f
  3169     0021  0877               	movf	__Umul8_16@word_mpld+1,w
  3170     0022  3DF5               	addwfc	__Umul8_16@product+1,f
  3171     0023                     l744:
  3172     0023  3001               	movlw	1
  3173     0024                     u1545:
  3174     0024  35F6               	lslf	__Umul8_16@word_mpld,f
  3175     0025  0DF7               	rlf	__Umul8_16@word_mpld+1,f
  3176     0026  0B89               	decfsz	9,f
  3177     0027  2824               	goto	u1545
  3178     0028  1003               	clrc
  3179     0029  0CF8               	rrf	__Umul8_16@multiplier,f
  3180     002A                     l1732:
  3181     002A  0878               	movf	__Umul8_16@multiplier,w
  3182     002B  1D03               	btfss	3,2
  3183     002C  282E               	goto	u1551
  3184     002D  282F               	goto	u1550
  3185     002E                     u1551:
  3186     002E  281B               	goto	l1728
  3187     002F                     u1550:
  3188     002F                     l1734:
  3189     002F  0875               	movf	__Umul8_16@product+1,w
  3190     0030  00F1               	movwf	?__Umul8_16+1
  3191     0031  0874               	movf	__Umul8_16@product,w
  3192     0032  00F0               	movwf	?__Umul8_16
  3193     0033                     l746:
  3194     0033  0008               	return
  3195     0034                     __end_of__Umul8_16:
  3196                           
  3197                           	psect	text7
  3198     0E2A                     __ptext7:	
  3199 ;; *************** function ___flge *****************
  3200 ;; Defined at:
  3201 ;;		line 4 in file "D:\Program Files\Microchip\xc8\v2.40\pic\sources\c99\common\flge.c"
  3202 ;; Parameters:    Size  Location     Type
  3203 ;;  ff1             4    0[COMMON] unsigned int 
  3204 ;;  ff2             4    4[COMMON] unsigned int 
  3205 ;; Auto vars:     Size  Location     Type
  3206 ;;		None
  3207 ;; Return value:  Size  Location     Type
  3208 ;;		None               void
  3209 ;; Registers used:
  3210 ;;		wreg, status,2, status,0
  3211 ;; Tracked objects:
  3212 ;;		On entry : 0/0
  3213 ;;		On exit  : 0/0
  3214 ;;		Unchanged: 0/0
  3215 ;; Data sizes:     COMMON   BANK0   BANK1   BANK2   BANK3   BANK4   BANK5   BANK6   BANK7   BANK8   BANK9  BANK10  BANK1
      +1  BANK12  BANK13  BANK14  BANK15  BANK16  BANK17  BANK18  BANK19  BANK20  BANK21  BANK22  BANK23  BANK24  BANK25
  3216 ;;      Params:         8       0       0       0       0       0       0       0       0       0       0       0       
      +0       0       0       0       0       0       0       0       0       0       0       0       0       0       0
  3217 ;;      Locals:         0       0       0       0       0       0       0       0       0       0       0       0       
      +0       0       0       0       0       0       0       0       0       0       0       0       0       0       0
  3218 ;;      Temps:          4       0       0       0       0       0       0       0       0       0       0       0       
      +0       0       0       0       0       0       0       0       0       0       0       0       0       0       0
  3219 ;;      Totals:        12       0       0       0       0       0       0       0       0       0       0       0       
      +0       0       0       0       0       0       0       0       0       0       0       0       0       0       0
  3220 ;;Total ram usage:       12 bytes
  3221 ;; Hardware stack levels used: 1
  3222 ;; This function calls:
  3223 ;;		Nothing
  3224 ;; This function is called by:
  3225 ;;		_Servo5
  3226 ;;		_Servo12
  3227 ;; This function uses a non-reentrant model
  3228 ;;
  3229                           
  3230     0E2A                     ___flge:	
  3231                           ;psect for function ___flge
  3232                           
  3233     0E2A                     l1738:	
  3234                           ;incstack = 0
  3235                           ; Regs used in ___flge: [wreg+status,2+status,0]
  3236                           
  3237     0E2A  3000               	movlw	0
  3238     0E2B  0570               	andwf	___flge@ff1,w
  3239     0E2C  00F8               	movwf	??___flge
  3240     0E2D  3000               	movlw	0
  3241     0E2E  0571               	andwf	___flge@ff1+1,w
  3242     0E2F  00F9               	movwf	??___flge+1
  3243     0E30  3080               	movlw	128
  3244     0E31  0572               	andwf	___flge@ff1+2,w
  3245     0E32  00FA               	movwf	??___flge+2
  3246     0E33  307F               	movlw	127
  3247     0E34  0573               	andwf	___flge@ff1+3,w
  3248     0E35  00FB               	movwf	??___flge+3
  3249     0E36  087B               	movf	??___flge+3,w
  3250     0E37  047A               	iorwf	??___flge+2,w
  3251     0E38  0479               	iorwf	??___flge+1,w
  3252     0E39  0478               	iorwf	??___flge,w
  3253     0E3A  1D03               	skipz
  3254     0E3B  2E3D               	goto	u1561
  3255     0E3C  2E3E               	goto	u1560
  3256     0E3D                     u1561:
  3257     0E3D  2E46               	goto	l506
  3258     0E3E                     u1560:
  3259     0E3E                     l1740:
  3260     0E3E  3000               	movlw	0
  3261     0E3F  00F3               	movwf	___flge@ff1+3
  3262     0E40  3000               	movlw	0
  3263     0E41  00F2               	movwf	___flge@ff1+2
  3264     0E42  3000               	movlw	0
  3265     0E43  00F1               	movwf	___flge@ff1+1
  3266     0E44  3000               	movlw	0
  3267     0E45  00F0               	movwf	___flge@ff1
  3268     0E46                     l506:
  3269     0E46  3000               	movlw	0
  3270     0E47  0574               	andwf	___flge@ff2,w
  3271     0E48  00F8               	movwf	??___flge
  3272     0E49  3000               	movlw	0
  3273     0E4A  0575               	andwf	___flge@ff2+1,w
  3274     0E4B  00F9               	movwf	??___flge+1
  3275     0E4C  3080               	movlw	128
  3276     0E4D  0576               	andwf	___flge@ff2+2,w
  3277     0E4E  00FA               	movwf	??___flge+2
  3278     0E4F  307F               	movlw	127
  3279     0E50  0577               	andwf	___flge@ff2+3,w
  3280     0E51  00FB               	movwf	??___flge+3
  3281     0E52  087B               	movf	??___flge+3,w
  3282     0E53  047A               	iorwf	??___flge+2,w
  3283     0E54  0479               	iorwf	??___flge+1,w
  3284     0E55  0478               	iorwf	??___flge,w
  3285     0E56  1D03               	skipz
  3286     0E57  2E59               	goto	u1571
  3287     0E58  2E5A               	goto	u1570
  3288     0E59                     u1571:
  3289     0E59  2E62               	goto	l1744
  3290     0E5A                     u1570:
  3291     0E5A                     l1742:
  3292     0E5A  3000               	movlw	0
  3293     0E5B  00F7               	movwf	___flge@ff2+3
  3294     0E5C  3000               	movlw	0
  3295     0E5D  00F6               	movwf	___flge@ff2+2
  3296     0E5E  3000               	movlw	0
  3297     0E5F  00F5               	movwf	___flge@ff2+1
  3298     0E60  3000               	movlw	0
  3299     0E61  00F4               	movwf	___flge@ff2
  3300     0E62                     l1744:
  3301     0E62  1FF3               	btfss	___flge@ff1+3,7
  3302     0E63  2E65               	goto	u1581
  3303     0E64  2E66               	goto	u1580
  3304     0E65                     u1581:
  3305     0E65  2E7E               	goto	l1748
  3306     0E66                     u1580:
  3307     0E66                     l1746:
  3308     0E66  3000               	movlw	0
  3309     0E67  00F8               	movwf	??___flge
  3310     0E68  3000               	movlw	0
  3311     0E69  00F9               	movwf	??___flge+1
  3312     0E6A  3000               	movlw	0
  3313     0E6B  00FA               	movwf	??___flge+2
  3314     0E6C  3080               	movlw	128
  3315     0E6D  00FB               	movwf	??___flge+3
  3316     0E6E  0870               	movf	___flge@ff1,w
  3317     0E6F  02F8               	subwf	??___flge,f
  3318     0E70  0871               	movf	___flge@ff1+1,w
  3319     0E71  3BF9               	subwfb	??___flge+1,f
  3320     0E72  0872               	movf	___flge@ff1+2,w
  3321     0E73  3BFA               	subwfb	??___flge+2,f
  3322     0E74  0873               	movf	___flge@ff1+3,w
  3323     0E75  3BFB               	subwfb	??___flge+3,f
  3324     0E76  087B               	movf	??___flge+3,w
  3325     0E77  00F3               	movwf	___flge@ff1+3
  3326     0E78  087A               	movf	??___flge+2,w
  3327     0E79  00F2               	movwf	___flge@ff1+2
  3328     0E7A  0879               	movf	??___flge+1,w
  3329     0E7B  00F1               	movwf	___flge@ff1+1
  3330     0E7C  0878               	movf	??___flge,w
  3331     0E7D  00F0               	movwf	___flge@ff1
  3332     0E7E                     l1748:
  3333     0E7E  1FF7               	btfss	___flge@ff2+3,7
  3334     0E7F  2E81               	goto	u1591
  3335     0E80  2E82               	goto	u1590
  3336     0E81                     u1591:
  3337     0E81  2E9A               	goto	l509
  3338     0E82                     u1590:
  3339     0E82                     l1750:
  3340     0E82  3000               	movlw	0
  3341     0E83  00F8               	movwf	??___flge
  3342     0E84  3000               	movlw	0
  3343     0E85  00F9               	movwf	??___flge+1
  3344     0E86  3000               	movlw	0
  3345     0E87  00FA               	movwf	??___flge+2
  3346     0E88  3080               	movlw	128
  3347     0E89  00FB               	movwf	??___flge+3
  3348     0E8A  0874               	movf	___flge@ff2,w
  3349     0E8B  02F8               	subwf	??___flge,f
  3350     0E8C  0875               	movf	___flge@ff2+1,w
  3351     0E8D  3BF9               	subwfb	??___flge+1,f
  3352     0E8E  0876               	movf	___flge@ff2+2,w
  3353     0E8F  3BFA               	subwfb	??___flge+2,f
  3354     0E90  0877               	movf	___flge@ff2+3,w
  3355     0E91  3BFB               	subwfb	??___flge+3,f
  3356     0E92  087B               	movf	??___flge+3,w
  3357     0E93  00F7               	movwf	___flge@ff2+3
  3358     0E94  087A               	movf	??___flge+2,w
  3359     0E95  00F6               	movwf	___flge@ff2+2
  3360     0E96  0879               	movf	??___flge+1,w
  3361     0E97  00F5               	movwf	___flge@ff2+1
  3362     0E98  0878               	movf	??___flge,w
  3363     0E99  00F4               	movwf	___flge@ff2
  3364     0E9A                     l509:
  3365     0E9A  3080               	movlw	128
  3366     0E9B  06F3               	xorwf	___flge@ff1+3,f
  3367     0E9C  3080               	movlw	128
  3368     0E9D  06F7               	xorwf	___flge@ff2+3,f
  3369     0E9E  0877               	movf	___flge@ff2+3,w
  3370     0E9F  0273               	subwf	___flge@ff1+3,w
  3371     0EA0  1D03               	skipz
  3372     0EA1  2EAC               	goto	u1605
  3373     0EA2  0876               	movf	___flge@ff2+2,w
  3374     0EA3  0272               	subwf	___flge@ff1+2,w
  3375     0EA4  1D03               	skipz
  3376     0EA5  2EAC               	goto	u1605
  3377     0EA6  0875               	movf	___flge@ff2+1,w
  3378     0EA7  0271               	subwf	___flge@ff1+1,w
  3379     0EA8  1D03               	skipz
  3380     0EA9  2EAC               	goto	u1605
  3381     0EAA  0874               	movf	___flge@ff2,w
  3382     0EAB  0270               	subwf	___flge@ff1,w
  3383     0EAC                     u1605:
  3384     0EAC  1803               	skipnc
  3385     0EAD  2EAF               	goto	u1601
  3386     0EAE  2EB0               	goto	u1600
  3387     0EAF                     u1601:
  3388     0EAF  2EB2               	goto	l1754
  3389     0EB0                     u1600:
  3390     0EB0                     l1752:
  3391     0EB0  1003               	clrc
  3392     0EB1  2EB3               	goto	l514
  3393     0EB2                     l1754:
  3394     0EB2  1403               	setc
  3395     0EB3                     l514:
  3396     0EB3  0008               	return
  3397     0EB4                     __end_of___flge:
  3398                           
  3399                           	psect	text8
  3400     0210                     __ptext8:	
  3401 ;; *************** function ___fldiv *****************
  3402 ;; Defined at:
  3403 ;;		line 8 in file "D:\Program Files\Microchip\xc8\v2.40\pic\sources\c99\common\sprcdiv.c"
  3404 ;; Parameters:    Size  Location     Type
  3405 ;;  a               4    0[COMMON] unsigned int 
  3406 ;;  b               4    4[COMMON] unsigned int 
  3407 ;; Auto vars:     Size  Location     Type
  3408 ;;  grs             4    7[BANK0 ] unsigned long 
  3409 ;;  rem             4    0[BANK0 ] unsigned long 
  3410 ;;  new_exp         2    5[BANK0 ] int 
  3411 ;;  aexp            1   12[BANK0 ] unsigned char 
  3412 ;;  bexp            1   11[BANK0 ] unsigned char 
  3413 ;;  sign            1    4[BANK0 ] unsigned char 
  3414 ;; Return value:  Size  Location     Type
  3415 ;;                  4    0[COMMON] unsigned char 
  3416 ;; Registers used:
  3417 ;;		wreg, status,2, status,0
  3418 ;; Tracked objects:
  3419 ;;		On entry : 0/0
  3420 ;;		On exit  : 0/0
  3421 ;;		Unchanged: 0/0
  3422 ;; Data sizes:     COMMON   BANK0   BANK1   BANK2   BANK3   BANK4   BANK5   BANK6   BANK7   BANK8   BANK9  BANK10  BANK1
      +1  BANK12  BANK13  BANK14  BANK15  BANK16  BANK17  BANK18  BANK19  BANK20  BANK21  BANK22  BANK23  BANK24  BANK25
  3423 ;;      Params:         8       0       0       0       0       0       0       0       0       0       0       0       
      +0       0       0       0       0       0       0       0       0       0       0       0       0       0       0
  3424 ;;      Locals:         0      13       0       0       0       0       0       0       0       0       0       0       
      +0       0       0       0       0       0       0       0       0       0       0       0       0       0       0
  3425 ;;      Temps:          5       0       0       0       0       0       0       0       0       0       0       0       
      +0       0       0       0       0       0       0       0       0       0       0       0       0       0       0
  3426 ;;      Totals:        13      13       0       0       0       0       0       0       0       0       0       0       
      +0       0       0       0       0       0       0       0       0       0       0       0       0       0       0
  3427 ;;Total ram usage:       26 bytes
  3428 ;; Hardware stack levels used: 1
  3429 ;; This function calls:
  3430 ;;		Nothing
  3431 ;; This function is called by:
  3432 ;;		_Servo5
  3433 ;;		_Servo12
  3434 ;; This function uses a non-reentrant model
  3435 ;;
  3436                           
  3437     0210                     ___fldiv:	
  3438                           ;psect for function ___fldiv
  3439                           
  3440     0210                     l1988:	
  3441                           ;incstack = 0
  3442                           ; Regs used in ___fldiv: [wreg+status,2+status,0]
  3443                           
  3444     0210  0877               	movf	___fldiv@b+3,w
  3445     0211  3980               	andlw	128
  3446     0212  0020               	movlb	0	; select bank0
  3447     0213  00A4               	movwf	___fldiv@sign
  3448     0214                     l1990:
  3449     0214  3577               	lslf	___fldiv@b+3,w
  3450     0215  00AB               	movwf	___fldiv@bexp
  3451     0216                     l1992:
  3452     0216  1FF6               	btfss	___fldiv@b+2,7
  3453     0217  2A19               	goto	u2141
  3454     0218  2A1A               	goto	u2140
  3455     0219                     u2141:
  3456     0219  2A1B               	goto	l1996
  3457     021A                     u2140:
  3458     021A                     l1994:
  3459     021A  142B               	bsf	___fldiv@bexp,0
  3460     021B                     l1996:
  3461     021B  082B               	movf	___fldiv@bexp,w
  3462     021C  1903               	btfsc	3,2
  3463     021D  2A1F               	goto	u2151
  3464     021E  2A20               	goto	u2150
  3465     021F                     u2151:
  3466     021F  2A30               	goto	l2006
  3467     0220                     u2150:
  3468     0220                     l1998:
  3469     0220  0A2B               	incf	___fldiv@bexp,w
  3470     0221  1D03               	btfss	3,2
  3471     0222  2A24               	goto	u2161
  3472     0223  2A25               	goto	u2160
  3473     0224                     u2161:
  3474     0224  2A2D               	goto	l2002
  3475     0225                     u2160:
  3476     0225                     l2000:
  3477     0225  3000               	movlw	0
  3478     0226  00F7               	movwf	___fldiv@b+3
  3479     0227  3000               	movlw	0
  3480     0228  00F6               	movwf	___fldiv@b+2
  3481     0229  3000               	movlw	0
  3482     022A  00F5               	movwf	___fldiv@b+1
  3483     022B  3000               	movlw	0
  3484     022C  00F4               	movwf	___fldiv@b
  3485     022D                     l2002:
  3486     022D  17F6               	bsf	___fldiv@b+2,7
  3487     022E                     l2004:
  3488     022E  01F7               	clrf	___fldiv@b+3
  3489     022F  2A38               	goto	l2008
  3490     0230                     l2006:
  3491     0230  3000               	movlw	0
  3492     0231  00F7               	movwf	___fldiv@b+3
  3493     0232  3000               	movlw	0
  3494     0233  00F6               	movwf	___fldiv@b+2
  3495     0234  3000               	movlw	0
  3496     0235  00F5               	movwf	___fldiv@b+1
  3497     0236  3000               	movlw	0
  3498     0237  00F4               	movwf	___fldiv@b
  3499     0238                     l2008:
  3500     0238  0873               	movf	___fldiv@a+3,w
  3501     0239  3980               	andlw	128
  3502     023A  00F8               	movwf	??___fldiv
  3503     023B  0878               	movf	??___fldiv,w
  3504     023C  06A4               	xorwf	___fldiv@sign,f
  3505     023D                     l2010:
  3506     023D  3573               	lslf	___fldiv@a+3,w
  3507     023E  00AC               	movwf	___fldiv@aexp
  3508     023F                     l2012:
  3509     023F  1FF2               	btfss	___fldiv@a+2,7
  3510     0240  2A42               	goto	u2171
  3511     0241  2A43               	goto	u2170
  3512     0242                     u2171:
  3513     0242  2A44               	goto	l2016
  3514     0243                     u2170:
  3515     0243                     l2014:
  3516     0243  142C               	bsf	___fldiv@aexp,0
  3517     0244                     l2016:
  3518     0244  082C               	movf	___fldiv@aexp,w
  3519     0245  1903               	btfsc	3,2
  3520     0246  2A48               	goto	u2181
  3521     0247  2A49               	goto	u2180
  3522     0248                     u2181:
  3523     0248  2A59               	goto	l2026
  3524     0249                     u2180:
  3525     0249                     l2018:
  3526     0249  0A2C               	incf	___fldiv@aexp,w
  3527     024A  1D03               	btfss	3,2
  3528     024B  2A4D               	goto	u2191
  3529     024C  2A4E               	goto	u2190
  3530     024D                     u2191:
  3531     024D  2A56               	goto	l2022
  3532     024E                     u2190:
  3533     024E                     l2020:
  3534     024E  3000               	movlw	0
  3535     024F  00F3               	movwf	___fldiv@a+3
  3536     0250  3000               	movlw	0
  3537     0251  00F2               	movwf	___fldiv@a+2
  3538     0252  3000               	movlw	0
  3539     0253  00F1               	movwf	___fldiv@a+1
  3540     0254  3000               	movlw	0
  3541     0255  00F0               	movwf	___fldiv@a
  3542     0256                     l2022:
  3543     0256  17F2               	bsf	___fldiv@a+2,7
  3544     0257                     l2024:
  3545     0257  01F3               	clrf	___fldiv@a+3
  3546     0258  2A61               	goto	l685
  3547     0259                     l2026:
  3548     0259  3000               	movlw	0
  3549     025A  00F3               	movwf	___fldiv@a+3
  3550     025B  3000               	movlw	0
  3551     025C  00F2               	movwf	___fldiv@a+2
  3552     025D  3000               	movlw	0
  3553     025E  00F1               	movwf	___fldiv@a+1
  3554     025F  3000               	movlw	0
  3555     0260  00F0               	movwf	___fldiv@a
  3556     0261                     l685:
  3557     0261  0873               	movf	___fldiv@a+3,w
  3558     0262  0472               	iorwf	___fldiv@a+2,w
  3559     0263  0471               	iorwf	___fldiv@a+1,w
  3560     0264  0470               	iorwf	___fldiv@a,w
  3561     0265  1D03               	skipz
  3562     0266  2A68               	goto	u2201
  3563     0267  2A69               	goto	u2200
  3564     0268                     u2201:
  3565     0268  2A82               	goto	l2036
  3566     0269                     u2200:
  3567     0269                     l2028:
  3568     0269  3000               	movlw	0
  3569     026A  00F7               	movwf	___fldiv@b+3
  3570     026B  3000               	movlw	0
  3571     026C  00F6               	movwf	___fldiv@b+2
  3572     026D  3000               	movlw	0
  3573     026E  00F5               	movwf	___fldiv@b+1
  3574     026F  3000               	movlw	0
  3575     0270  00F4               	movwf	___fldiv@b
  3576     0271  3080               	movlw	128
  3577     0272  04F6               	iorwf	___fldiv@b+2,f
  3578     0273  307F               	movlw	127
  3579     0274  04F7               	iorwf	___fldiv@b+3,f
  3580     0275                     l2030:
  3581     0275  0824               	movf	___fldiv@sign,w
  3582     0276  00F8               	movwf	??___fldiv
  3583     0277  0878               	movf	??___fldiv,w
  3584     0278  04F7               	iorwf	___fldiv@b+3,f
  3585     0279                     l2032:
  3586     0279  0877               	movf	___fldiv@b+3,w
  3587     027A  00F3               	movwf	?___fldiv+3
  3588     027B  0876               	movf	___fldiv@b+2,w
  3589     027C  00F2               	movwf	?___fldiv+2
  3590     027D  0875               	movf	___fldiv@b+1,w
  3591     027E  00F1               	movwf	?___fldiv+1
  3592     027F  0874               	movf	___fldiv@b,w
  3593     0280  00F0               	movwf	?___fldiv
  3594     0281  2BB9               	goto	l687
  3595     0282                     l2036:
  3596     0282  082B               	movf	___fldiv@bexp,w
  3597     0283  1D03               	btfss	3,2
  3598     0284  2A86               	goto	u2211
  3599     0285  2A87               	goto	u2210
  3600     0286                     u2211:
  3601     0286  2A90               	goto	l2042
  3602     0287                     u2210:
  3603     0287                     l2038:
  3604     0287  3000               	movlw	0
  3605     0288  00F3               	movwf	?___fldiv+3
  3606     0289  3000               	movlw	0
  3607     028A  00F2               	movwf	?___fldiv+2
  3608     028B  3000               	movlw	0
  3609     028C  00F1               	movwf	?___fldiv+1
  3610     028D  3000               	movlw	0
  3611     028E  00F0               	movwf	?___fldiv
  3612     028F  2BB9               	goto	l687
  3613     0290                     l2042:
  3614     0290  082B               	movf	___fldiv@bexp,w
  3615     0291  00F8               	movwf	??___fldiv
  3616     0292  01F9               	clrf	??___fldiv+1
  3617     0293  0879               	movf	??___fldiv+1,w
  3618     0294  00FB               	movwf	??___fldiv+3
  3619     0295  082C               	movf	___fldiv@aexp,w
  3620     0296  0278               	subwf	??___fldiv,w
  3621     0297  00FA               	movwf	??___fldiv+2
  3622     0298  1C03               	skipc
  3623     0299  03FB               	decf	??___fldiv+3,f
  3624     029A  087A               	movf	??___fldiv+2,w
  3625     029B  3E7F               	addlw	127
  3626     029C  00A5               	movwf	___fldiv@new_exp
  3627     029D  3000               	movlw	0
  3628     029E  3D7B               	addwfc	??___fldiv+3,w
  3629     029F  00A6               	movwf	___fldiv@new_exp+1
  3630     02A0                     l2044:
  3631     02A0  0877               	movf	___fldiv@b+3,w
  3632     02A1  00A3               	movwf	___fldiv@rem+3
  3633     02A2  0876               	movf	___fldiv@b+2,w
  3634     02A3  00A2               	movwf	___fldiv@rem+2
  3635     02A4  0875               	movf	___fldiv@b+1,w
  3636     02A5  00A1               	movwf	___fldiv@rem+1
  3637     02A6  0874               	movf	___fldiv@b,w
  3638     02A7  00A0               	movwf	___fldiv@rem
  3639     02A8                     l2046:
  3640     02A8  3000               	movlw	0
  3641     02A9  00F7               	movwf	___fldiv@b+3
  3642     02AA  3000               	movlw	0
  3643     02AB  00F6               	movwf	___fldiv@b+2
  3644     02AC  3000               	movlw	0
  3645     02AD  00F5               	movwf	___fldiv@b+1
  3646     02AE  3000               	movlw	0
  3647     02AF  00F4               	movwf	___fldiv@b
  3648     02B0                     l2048:
  3649     02B0  3000               	movlw	0
  3650     02B1  00AA               	movwf	___fldiv@grs+3
  3651     02B2  3000               	movlw	0
  3652     02B3  00A9               	movwf	___fldiv@grs+2
  3653     02B4  3000               	movlw	0
  3654     02B5  00A8               	movwf	___fldiv@grs+1
  3655     02B6  3000               	movlw	0
  3656     02B7  00A7               	movwf	___fldiv@grs
  3657     02B8                     l2050:
  3658     02B8  01AC               	clrf	___fldiv@aexp
  3659     02B9  2AF8               	goto	l2070
  3660     02BA                     l2052:
  3661     02BA  082C               	movf	___fldiv@aexp,w
  3662     02BB  1903               	btfsc	3,2
  3663     02BC  2ABE               	goto	u2221
  3664     02BD  2ABF               	goto	u2220
  3665     02BE                     u2221:
  3666     02BE  2AD9               	goto	l2062
  3667     02BF                     u2220:
  3668     02BF                     l2054:
  3669     02BF  3001               	movlw	1
  3670     02C0                     u2235:
  3671     02C0  35A0               	lslf	___fldiv@rem,f
  3672     02C1  0DA1               	rlf	___fldiv@rem+1,f
  3673     02C2  0DA2               	rlf	___fldiv@rem+2,f
  3674     02C3  0DA3               	rlf	___fldiv@rem+3,f
  3675     02C4  0B89               	decfsz	9,f
  3676     02C5  2AC0               	goto	u2235
  3677     02C6  3001               	movlw	1
  3678     02C7                     u2245:
  3679     02C7  35F4               	lslf	___fldiv@b,f
  3680     02C8  0DF5               	rlf	___fldiv@b+1,f
  3681     02C9  0DF6               	rlf	___fldiv@b+2,f
  3682     02CA  0DF7               	rlf	___fldiv@b+3,f
  3683     02CB  0B89               	decfsz	9,f
  3684     02CC  2AC7               	goto	u2245
  3685     02CD                     l2056:
  3686     02CD  1FAA               	btfss	___fldiv@grs+3,7
  3687     02CE  2AD0               	goto	u2251
  3688     02CF  2AD1               	goto	u2250
  3689     02D0                     u2251:
  3690     02D0  2AD2               	goto	l2060
  3691     02D1                     u2250:
  3692     02D1                     l2058:
  3693     02D1  1474               	bsf	___fldiv@b,0
  3694     02D2                     l2060:
  3695     02D2  3001               	movlw	1
  3696     02D3                     u2265:
  3697     02D3  35A7               	lslf	___fldiv@grs,f
  3698     02D4  0DA8               	rlf	___fldiv@grs+1,f
  3699     02D5  0DA9               	rlf	___fldiv@grs+2,f
  3700     02D6  0DAA               	rlf	___fldiv@grs+3,f
  3701     02D7  0B89               	decfsz	9,f
  3702     02D8  2AD3               	goto	u2265
  3703     02D9                     l2062:
  3704     02D9  0873               	movf	___fldiv@a+3,w
  3705     02DA  0223               	subwf	___fldiv@rem+3,w
  3706     02DB  1D03               	skipz
  3707     02DC  2AE7               	goto	u2275
  3708     02DD  0872               	movf	___fldiv@a+2,w
  3709     02DE  0222               	subwf	___fldiv@rem+2,w
  3710     02DF  1D03               	skipz
  3711     02E0  2AE7               	goto	u2275
  3712     02E1  0871               	movf	___fldiv@a+1,w
  3713     02E2  0221               	subwf	___fldiv@rem+1,w
  3714     02E3  1D03               	skipz
  3715     02E4  2AE7               	goto	u2275
  3716     02E5  0870               	movf	___fldiv@a,w
  3717     02E6  0220               	subwf	___fldiv@rem,w
  3718     02E7                     u2275:
  3719     02E7  1C03               	skipc
  3720     02E8  2AEA               	goto	u2271
  3721     02E9  2AEB               	goto	u2270
  3722     02EA                     u2271:
  3723     02EA  2AF4               	goto	l2068
  3724     02EB                     u2270:
  3725     02EB                     l2064:
  3726     02EB  172A               	bsf	___fldiv@grs+3,6
  3727     02EC                     l2066:
  3728     02EC  0870               	movf	___fldiv@a,w
  3729     02ED  02A0               	subwf	___fldiv@rem,f
  3730     02EE  0871               	movf	___fldiv@a+1,w
  3731     02EF  3BA1               	subwfb	___fldiv@rem+1,f
  3732     02F0  0872               	movf	___fldiv@a+2,w
  3733     02F1  3BA2               	subwfb	___fldiv@rem+2,f
  3734     02F2  0873               	movf	___fldiv@a+3,w
  3735     02F3  3BA3               	subwfb	___fldiv@rem+3,f
  3736     02F4                     l2068:
  3737     02F4  3001               	movlw	1
  3738     02F5  00F8               	movwf	??___fldiv
  3739     02F6  0878               	movf	??___fldiv,w
  3740     02F7  07AC               	addwf	___fldiv@aexp,f
  3741     02F8                     l2070:
  3742     02F8  301A               	movlw	26
  3743     02F9  022C               	subwf	___fldiv@aexp,w
  3744     02FA  1C03               	skipc
  3745     02FB  2AFD               	goto	u2281
  3746     02FC  2AFE               	goto	u2280
  3747     02FD                     u2281:
  3748     02FD  2ABA               	goto	l2052
  3749     02FE                     u2280:
  3750     02FE                     l2072:
  3751     02FE  0823               	movf	___fldiv@rem+3,w
  3752     02FF  0422               	iorwf	___fldiv@rem+2,w
  3753     0300  0421               	iorwf	___fldiv@rem+1,w
  3754     0301  0420               	iorwf	___fldiv@rem,w
  3755     0302  1903               	skipnz
  3756     0303  2B05               	goto	u2291
  3757     0304  2B06               	goto	u2290
  3758     0305                     u2291:
  3759     0305  2B1F               	goto	l2086
  3760     0306                     u2290:
  3761     0306                     l2074:
  3762     0306  1427               	bsf	___fldiv@grs,0
  3763     0307  2B1F               	goto	l2086
  3764     0308                     l2076:
  3765     0308  3001               	movlw	1
  3766     0309                     u2305:
  3767     0309  35F4               	lslf	___fldiv@b,f
  3768     030A  0DF5               	rlf	___fldiv@b+1,f
  3769     030B  0DF6               	rlf	___fldiv@b+2,f
  3770     030C  0DF7               	rlf	___fldiv@b+3,f
  3771     030D  0B89               	decfsz	9,f
  3772     030E  2B09               	goto	u2305
  3773     030F                     l2078:
  3774     030F  1FAA               	btfss	___fldiv@grs+3,7
  3775     0310  2B12               	goto	u2311
  3776     0311  2B13               	goto	u2310
  3777     0312                     u2311:
  3778     0312  2B14               	goto	l2082
  3779     0313                     u2310:
  3780     0313                     l2080:
  3781     0313  1474               	bsf	___fldiv@b,0
  3782     0314                     l2082:
  3783     0314  3001               	movlw	1
  3784     0315                     u2325:
  3785     0315  35A7               	lslf	___fldiv@grs,f
  3786     0316  0DA8               	rlf	___fldiv@grs+1,f
  3787     0317  0DA9               	rlf	___fldiv@grs+2,f
  3788     0318  0DAA               	rlf	___fldiv@grs+3,f
  3789     0319  0B89               	decfsz	9,f
  3790     031A  2B15               	goto	u2325
  3791     031B                     l2084:
  3792     031B  30FF               	movlw	255
  3793     031C  07A5               	addwf	___fldiv@new_exp,f
  3794     031D  30FF               	movlw	255
  3795     031E  3DA6               	addwfc	___fldiv@new_exp+1,f
  3796     031F                     l2086:
  3797     031F  1FF6               	btfss	___fldiv@b+2,7
  3798     0320  2B22               	goto	u2331
  3799     0321  2B23               	goto	u2330
  3800     0322                     u2331:
  3801     0322  2B08               	goto	l2076
  3802     0323                     u2330:
  3803     0323                     l2088:
  3804     0323  01AC               	clrf	___fldiv@aexp
  3805     0324                     l2090:
  3806     0324  1FAA               	btfss	___fldiv@grs+3,7
  3807     0325  2B27               	goto	u2341
  3808     0326  2B28               	goto	u2340
  3809     0327                     u2341:
  3810     0327  2B44               	goto	l2098
  3811     0328                     u2340:
  3812     0328                     l2092:
  3813     0328  30FF               	movlw	255
  3814     0329  0527               	andwf	___fldiv@grs,w
  3815     032A  00F8               	movwf	??___fldiv
  3816     032B  30FF               	movlw	255
  3817     032C  0528               	andwf	___fldiv@grs+1,w
  3818     032D  00F9               	movwf	??___fldiv+1
  3819     032E  30FF               	movlw	255
  3820     032F  0529               	andwf	___fldiv@grs+2,w
  3821     0330  00FA               	movwf	??___fldiv+2
  3822     0331  307F               	movlw	127
  3823     0332  052A               	andwf	___fldiv@grs+3,w
  3824     0333  00FB               	movwf	??___fldiv+3
  3825     0334  087B               	movf	??___fldiv+3,w
  3826     0335  047A               	iorwf	??___fldiv+2,w
  3827     0336  0479               	iorwf	??___fldiv+1,w
  3828     0337  0478               	iorwf	??___fldiv,w
  3829     0338  1903               	skipnz
  3830     0339  2B3B               	goto	u2351
  3831     033A  2B3C               	goto	u2350
  3832     033B                     u2351:
  3833     033B  2B3F               	goto	l701
  3834     033C                     u2350:
  3835     033C                     l2094:
  3836     033C  01AC               	clrf	___fldiv@aexp
  3837     033D  0AAC               	incf	___fldiv@aexp,f
  3838     033E  2B44               	goto	l2098
  3839     033F                     l701:
  3840     033F  1C74               	btfss	___fldiv@b,0
  3841     0340  2B42               	goto	u2361
  3842     0341  2B43               	goto	u2360
  3843     0342                     u2361:
  3844     0342  2B44               	goto	l2098
  3845     0343                     u2360:
  3846     0343  2B3C               	goto	l2094
  3847     0344                     l2098:
  3848     0344  082C               	movf	___fldiv@aexp,w
  3849     0345  1903               	btfsc	3,2
  3850     0346  2B48               	goto	u2371
  3851     0347  2B49               	goto	u2370
  3852     0348                     u2371:
  3853     0348  2B71               	goto	l2108
  3854     0349                     u2370:
  3855     0349                     l2100:
  3856     0349  3001               	movlw	1
  3857     034A  07F4               	addwf	___fldiv@b,f
  3858     034B  3000               	movlw	0
  3859     034C  3DF5               	addwfc	___fldiv@b+1,f
  3860     034D  3000               	movlw	0
  3861     034E  3DF6               	addwfc	___fldiv@b+2,f
  3862     034F  3000               	movlw	0
  3863     0350  3DF7               	addwfc	___fldiv@b+3,f
  3864     0351                     l2102:
  3865     0351  1C77               	btfss	___fldiv@b+3,0
  3866     0352  2B54               	goto	u2381
  3867     0353  2B55               	goto	u2380
  3868     0354                     u2381:
  3869     0354  2B71               	goto	l2108
  3870     0355                     u2380:
  3871     0355                     l2104:
  3872     0355  0874               	movf	___fldiv@b,w
  3873     0356  00F8               	movwf	??___fldiv
  3874     0357  0875               	movf	___fldiv@b+1,w
  3875     0358  00F9               	movwf	??___fldiv+1
  3876     0359  0876               	movf	___fldiv@b+2,w
  3877     035A  00FA               	movwf	??___fldiv+2
  3878     035B  0877               	movf	___fldiv@b+3,w
  3879     035C  00FB               	movwf	??___fldiv+3
  3880     035D  3001               	movlw	1
  3881     035E  00FC               	movwf	??___fldiv+4
  3882     035F                     u2395:
  3883     035F  37FB               	asrf	??___fldiv+3,f
  3884     0360  0CFA               	rrf	??___fldiv+2,f
  3885     0361  0CF9               	rrf	??___fldiv+1,f
  3886     0362  0CF8               	rrf	??___fldiv,f
  3887     0363                     u2390:
  3888     0363  0BFC               	decfsz	??___fldiv+4,f
  3889     0364  2B5F               	goto	u2395
  3890     0365  087B               	movf	??___fldiv+3,w
  3891     0366  00F7               	movwf	___fldiv@b+3
  3892     0367  087A               	movf	??___fldiv+2,w
  3893     0368  00F6               	movwf	___fldiv@b+2
  3894     0369  0879               	movf	??___fldiv+1,w
  3895     036A  00F5               	movwf	___fldiv@b+1
  3896     036B  0878               	movf	??___fldiv,w
  3897     036C  00F4               	movwf	___fldiv@b
  3898     036D                     l2106:
  3899     036D  3001               	movlw	1
  3900     036E  07A5               	addwf	___fldiv@new_exp,f
  3901     036F  3000               	movlw	0
  3902     0370  3DA6               	addwfc	___fldiv@new_exp+1,f
  3903     0371                     l2108:
  3904     0371  0826               	movf	___fldiv@new_exp+1,w
  3905     0372  3A80               	xorlw	128
  3906     0373  00F8               	movwf	??___fldiv
  3907     0374  3080               	movlw	128
  3908     0375  0278               	subwf	??___fldiv,w
  3909     0376  1D03               	skipz
  3910     0377  2B7A               	goto	u2405
  3911     0378  30FF               	movlw	255
  3912     0379  0225               	subwf	___fldiv@new_exp,w
  3913     037A                     u2405:
  3914     037A  1C03               	skipc
  3915     037B  2B7D               	goto	u2401
  3916     037C  2B7E               	goto	u2400
  3917     037D                     u2401:
  3918     037D  2B8B               	goto	l706
  3919     037E                     u2400:
  3920     037E                     l2110:
  3921     037E  30FF               	movlw	255
  3922     037F  0020               	movlb	0	; select bank0
  3923     0380  00A5               	movwf	___fldiv@new_exp
  3924     0381  3000               	movlw	0
  3925     0382  00A6               	movwf	___fldiv@new_exp+1
  3926     0383  3000               	movlw	0
  3927     0384  00F7               	movwf	___fldiv@b+3
  3928     0385  3000               	movlw	0
  3929     0386  00F6               	movwf	___fldiv@b+2
  3930     0387  3000               	movlw	0
  3931     0388  00F5               	movwf	___fldiv@b+1
  3932     0389  3000               	movlw	0
  3933     038A  00F4               	movwf	___fldiv@b
  3934     038B                     l706:
  3935     038B  0020               	movlb	0	; select bank0
  3936     038C  0826               	movf	___fldiv@new_exp+1,w
  3937     038D  3A80               	xorlw	128
  3938     038E  00F8               	movwf	??___fldiv
  3939     038F  3080               	movlw	128
  3940     0390  0278               	subwf	??___fldiv,w
  3941     0391  1D03               	skipz
  3942     0392  2B95               	goto	u2415
  3943     0393  3001               	movlw	1
  3944     0394  0225               	subwf	___fldiv@new_exp,w
  3945     0395                     u2415:
  3946     0395  1803               	skipnc
  3947     0396  2B98               	goto	u2411
  3948     0397  2B99               	goto	u2410
  3949     0398                     u2411:
  3950     0398  2BA5               	goto	l707
  3951     0399                     u2410:
  3952     0399                     l2112:
  3953     0399  0020               	movlb	0	; select bank0
  3954     039A  01A5               	clrf	___fldiv@new_exp
  3955     039B  01A6               	clrf	___fldiv@new_exp+1
  3956     039C                     l2114:
  3957     039C  3000               	movlw	0
  3958     039D  00F7               	movwf	___fldiv@b+3
  3959     039E  3000               	movlw	0
  3960     039F  00F6               	movwf	___fldiv@b+2
  3961     03A0  3000               	movlw	0
  3962     03A1  00F5               	movwf	___fldiv@b+1
  3963     03A2  3000               	movlw	0
  3964     03A3  00F4               	movwf	___fldiv@b
  3965     03A4                     l2116:
  3966     03A4  01A4               	clrf	___fldiv@sign
  3967     03A5                     l707:
  3968     03A5  0020               	movlb	0	; select bank0
  3969     03A6  0825               	movf	___fldiv@new_exp,w
  3970     03A7  00AB               	movwf	___fldiv@bexp
  3971     03A8                     l2118:
  3972     03A8  1C2B               	btfss	___fldiv@bexp,0
  3973     03A9  2BAB               	goto	u2421
  3974     03AA  2BAC               	goto	u2420
  3975     03AB                     u2421:
  3976     03AB  2BAE               	goto	l2122
  3977     03AC                     u2420:
  3978     03AC                     l2120:
  3979     03AC  17F6               	bsf	___fldiv@b+2,7
  3980     03AD  2BB2               	goto	l709
  3981     03AE                     l2122:
  3982     03AE  307F               	movlw	127
  3983     03AF  00F8               	movwf	??___fldiv
  3984     03B0  0878               	movf	??___fldiv,w
  3985     03B1  05F6               	andwf	___fldiv@b+2,f
  3986     03B2                     l709:
  3987     03B2  362B               	lsrf	___fldiv@bexp,w
  3988     03B3  00F7               	movwf	___fldiv@b+3
  3989     03B4  0824               	movf	___fldiv@sign,w
  3990     03B5  00F8               	movwf	??___fldiv
  3991     03B6  0878               	movf	??___fldiv,w
  3992     03B7  04F7               	iorwf	___fldiv@b+3,f
  3993     03B8  2A79               	goto	l2032
  3994     03B9                     l687:
  3995     03B9  0008               	return
  3996     03BA                     __end_of___fldiv:
  3997                           
  3998                           	psect	text9
  3999     03BA                     __ptext9:	
  4000 ;; *************** function ___fladd *****************
  4001 ;; Defined at:
  4002 ;;		line 10 in file "D:\Program Files\Microchip\xc8\v2.40\pic\sources\c99\common\sprcadd.c"
  4003 ;; Parameters:    Size  Location     Type
  4004 ;;  b               4   39[BANK0 ] unsigned char 
  4005 ;;  a               4   43[BANK0 ] unsigned char 
  4006 ;; Auto vars:     Size  Location     Type
  4007 ;;  grs             1   58[BANK0 ] unsigned char 
  4008 ;;  bexp            1   57[BANK0 ] unsigned char 
  4009 ;;  aexp            1   56[BANK0 ] unsigned char 
  4010 ;;  signs           1   55[BANK0 ] unsigned char 
  4011 ;; Return value:  Size  Location     Type
  4012 ;;                  4   39[BANK0 ] unsigned char 
  4013 ;; Registers used:
  4014 ;;		wreg, status,2, status,0
  4015 ;; Tracked objects:
  4016 ;;		On entry : 0/0
  4017 ;;		On exit  : 0/0
  4018 ;;		Unchanged: 0/0
  4019 ;; Data sizes:     COMMON   BANK0   BANK1   BANK2   BANK3   BANK4   BANK5   BANK6   BANK7   BANK8   BANK9  BANK10  BANK1
      +1  BANK12  BANK13  BANK14  BANK15  BANK16  BANK17  BANK18  BANK19  BANK20  BANK21  BANK22  BANK23  BANK24  BANK25
  4020 ;;      Params:         0       8       0       0       0       0       0       0       0       0       0       0       
      +0       0       0       0       0       0       0       0       0       0       0       0       0       0       0
  4021 ;;      Locals:         0       4       0       0       0       0       0       0       0       0       0       0       
      +0       0       0       0       0       0       0       0       0       0       0       0       0       0       0
  4022 ;;      Temps:          0       8       0       0       0       0       0       0       0       0       0       0       
      +0       0       0       0       0       0       0       0       0       0       0       0       0       0       0
  4023 ;;      Totals:         0      20       0       0       0       0       0       0       0       0       0       0       
      +0       0       0       0       0       0       0       0       0       0       0       0       0       0       0
  4024 ;;Total ram usage:       20 bytes
  4025 ;; Hardware stack levels used: 1
  4026 ;; This function calls:
  4027 ;;		Nothing
  4028 ;; This function is called by:
  4029 ;;		_Servo5
  4030 ;;		_Servo12
  4031 ;; This function uses a non-reentrant model
  4032 ;;
  4033                           
  4034     03BA                     ___fladd:	
  4035                           ;psect for function ___fladd
  4036                           
  4037     03BA                     l1794:	
  4038                           ;incstack = 0
  4039                           ; Regs used in ___fladd: [wreg+status,2+status,0]
  4040                           
  4041     03BA  0020               	movlb	0	; select bank0
  4042     03BB  084A               	movf	___fladd@b+3,w
  4043     03BC  3980               	andlw	128
  4044     03BD  00D7               	movwf	___fladd@signs
  4045     03BE                     l1796:
  4046     03BE  354A               	lslf	___fladd@b+3,w
  4047     03BF  00D9               	movwf	___fladd@bexp
  4048     03C0                     l1798:
  4049     03C0  1FC9               	btfss	___fladd@b+2,7
  4050     03C1  2BC3               	goto	u1711
  4051     03C2  2BC4               	goto	u1710
  4052     03C3                     u1711:
  4053     03C3  2BC5               	goto	l1802
  4054     03C4                     u1710:
  4055     03C4                     l1800:
  4056     03C4  1459               	bsf	___fladd@bexp,0
  4057     03C5                     l1802:
  4058     03C5  0859               	movf	___fladd@bexp,w
  4059     03C6  1903               	btfsc	3,2
  4060     03C7  2BC9               	goto	u1721
  4061     03C8  2BCA               	goto	u1720
  4062     03C9                     u1721:
  4063     03C9  2BDA               	goto	l1812
  4064     03CA                     u1720:
  4065     03CA                     l1804:
  4066     03CA  0A59               	incf	___fladd@bexp,w
  4067     03CB  1D03               	btfss	3,2
  4068     03CC  2BCE               	goto	u1731
  4069     03CD  2BCF               	goto	u1730
  4070     03CE                     u1731:
  4071     03CE  2BD7               	goto	l1808
  4072     03CF                     u1730:
  4073     03CF                     l1806:
  4074     03CF  3000               	movlw	0
  4075     03D0  00CA               	movwf	___fladd@b+3
  4076     03D1  3000               	movlw	0
  4077     03D2  00C9               	movwf	___fladd@b+2
  4078     03D3  3000               	movlw	0
  4079     03D4  00C8               	movwf	___fladd@b+1
  4080     03D5  3000               	movlw	0
  4081     03D6  00C7               	movwf	___fladd@b
  4082     03D7                     l1808:
  4083     03D7  17C9               	bsf	___fladd@b+2,7
  4084     03D8                     l1810:
  4085     03D8  01CA               	clrf	___fladd@b+3
  4086     03D9  2BE2               	goto	l1814
  4087     03DA                     l1812:
  4088     03DA  3000               	movlw	0
  4089     03DB  00CA               	movwf	___fladd@b+3
  4090     03DC  3000               	movlw	0
  4091     03DD  00C9               	movwf	___fladd@b+2
  4092     03DE  3000               	movlw	0
  4093     03DF  00C8               	movwf	___fladd@b+1
  4094     03E0  3000               	movlw	0
  4095     03E1  00C7               	movwf	___fladd@b
  4096     03E2                     l1814:
  4097     03E2  084E               	movf	___fladd@a+3,w
  4098     03E3  3980               	andlw	128
  4099     03E4  00D8               	movwf	___fladd@aexp
  4100     03E5                     l1816:
  4101     03E5  0858               	movf	___fladd@aexp,w
  4102     03E6  0657               	xorwf	___fladd@signs,w
  4103     03E7  1903               	skipnz
  4104     03E8  2BEA               	goto	u1741
  4105     03E9  2BEB               	goto	u1740
  4106     03EA                     u1741:
  4107     03EA  2BEC               	goto	l1820
  4108     03EB                     u1740:
  4109     03EB                     l1818:
  4110     03EB  1757               	bsf	___fladd@signs,6
  4111     03EC                     l1820:
  4112     03EC  354E               	lslf	___fladd@a+3,w
  4113     03ED  00D8               	movwf	___fladd@aexp
  4114     03EE                     l1822:
  4115     03EE  1FCD               	btfss	___fladd@a+2,7
  4116     03EF  2BF1               	goto	u1751
  4117     03F0  2BF2               	goto	u1750
  4118     03F1                     u1751:
  4119     03F1  2BF3               	goto	l1826
  4120     03F2                     u1750:
  4121     03F2                     l1824:
  4122     03F2  1458               	bsf	___fladd@aexp,0
  4123     03F3                     l1826:
  4124     03F3  0858               	movf	___fladd@aexp,w
  4125     03F4  1903               	btfsc	3,2
  4126     03F5  2BF7               	goto	u1761
  4127     03F6  2BF8               	goto	u1760
  4128     03F7                     u1761:
  4129     03F7  2C08               	goto	l1836
  4130     03F8                     u1760:
  4131     03F8                     l1828:
  4132     03F8  0A58               	incf	___fladd@aexp,w
  4133     03F9  1D03               	btfss	3,2
  4134     03FA  2BFC               	goto	u1771
  4135     03FB  2BFD               	goto	u1770
  4136     03FC                     u1771:
  4137     03FC  2C05               	goto	l1832
  4138     03FD                     u1770:
  4139     03FD                     l1830:
  4140     03FD  3000               	movlw	0
  4141     03FE  00CE               	movwf	___fladd@a+3
  4142     03FF  3000               	movlw	0
  4143     0400  00CD               	movwf	___fladd@a+2
  4144     0401  3000               	movlw	0
  4145     0402  00CC               	movwf	___fladd@a+1
  4146     0403  3000               	movlw	0
  4147     0404  00CB               	movwf	___fladd@a
  4148     0405                     l1832:
  4149     0405  17CD               	bsf	___fladd@a+2,7
  4150     0406                     l1834:
  4151     0406  01CE               	clrf	___fladd@a+3
  4152     0407  2C10               	goto	l629
  4153     0408                     l1836:
  4154     0408  3000               	movlw	0
  4155     0409  00CE               	movwf	___fladd@a+3
  4156     040A  3000               	movlw	0
  4157     040B  00CD               	movwf	___fladd@a+2
  4158     040C  3000               	movlw	0
  4159     040D  00CC               	movwf	___fladd@a+1
  4160     040E  3000               	movlw	0
  4161     040F  00CB               	movwf	___fladd@a
  4162     0410                     l629:
  4163     0410  0859               	movf	___fladd@bexp,w
  4164     0411  0258               	subwf	___fladd@aexp,w
  4165     0412  1803               	skipnc
  4166     0413  2C15               	goto	u1781
  4167     0414  2C16               	goto	u1780
  4168     0415                     u1781:
  4169     0415  2C3C               	goto	l1872
  4170     0416                     u1780:
  4171     0416                     l1838:
  4172     0416  1F57               	btfss	___fladd@signs,6
  4173     0417  2C19               	goto	u1791
  4174     0418  2C1A               	goto	u1790
  4175     0419                     u1791:
  4176     0419  2C1E               	goto	l1842
  4177     041A                     u1790:
  4178     041A                     l1840:
  4179     041A  3080               	movlw	128
  4180     041B  00CF               	movwf	??___fladd
  4181     041C  084F               	movf	??___fladd,w
  4182     041D  06D7               	xorwf	___fladd@signs,f
  4183     041E                     l1842:
  4184     041E  0859               	movf	___fladd@bexp,w
  4185     041F  00DA               	movwf	___fladd@grs
  4186     0420                     l1844:
  4187     0420  0858               	movf	___fladd@aexp,w
  4188     0421  00D9               	movwf	___fladd@bexp
  4189     0422                     l1846:
  4190     0422  085A               	movf	___fladd@grs,w
  4191     0423  00D8               	movwf	___fladd@aexp
  4192     0424                     l1848:
  4193     0424  0847               	movf	___fladd@b,w
  4194     0425  00DA               	movwf	___fladd@grs
  4195     0426                     l1850:
  4196     0426  084B               	movf	___fladd@a,w
  4197     0427  00C7               	movwf	___fladd@b
  4198     0428                     l1852:
  4199     0428  085A               	movf	___fladd@grs,w
  4200     0429  00CB               	movwf	___fladd@a
  4201     042A                     l1854:
  4202     042A  0848               	movf	___fladd@b+1,w
  4203     042B  00DA               	movwf	___fladd@grs
  4204     042C                     l1856:
  4205     042C  084C               	movf	___fladd@a+1,w
  4206     042D  00C8               	movwf	___fladd@b+1
  4207     042E                     l1858:
  4208     042E  085A               	movf	___fladd@grs,w
  4209     042F  00CC               	movwf	___fladd@a+1
  4210     0430                     l1860:
  4211     0430  0849               	movf	___fladd@b+2,w
  4212     0431  00DA               	movwf	___fladd@grs
  4213     0432                     l1862:
  4214     0432  084D               	movf	___fladd@a+2,w
  4215     0433  00C9               	movwf	___fladd@b+2
  4216     0434                     l1864:
  4217     0434  085A               	movf	___fladd@grs,w
  4218     0435  00CD               	movwf	___fladd@a+2
  4219     0436                     l1866:
  4220     0436  084A               	movf	___fladd@b+3,w
  4221     0437  00DA               	movwf	___fladd@grs
  4222     0438                     l1868:
  4223     0438  084E               	movf	___fladd@a+3,w
  4224     0439  00CA               	movwf	___fladd@b+3
  4225     043A                     l1870:
  4226     043A  085A               	movf	___fladd@grs,w
  4227     043B  00CE               	movwf	___fladd@a+3
  4228     043C                     l1872:
  4229     043C  01DA               	clrf	___fladd@grs
  4230     043D                     l1874:
  4231     043D  0858               	movf	___fladd@aexp,w
  4232     043E  00CF               	movwf	??___fladd
  4233     043F  01D0               	clrf	??___fladd+1
  4234     0440  0850               	movf	??___fladd+1,w
  4235     0441  00D2               	movwf	??___fladd+3
  4236     0442  0859               	movf	___fladd@bexp,w
  4237     0443  024F               	subwf	??___fladd,w
  4238     0444  00D1               	movwf	??___fladd+2
  4239     0445  1C03               	skipc
  4240     0446  03D2               	decf	??___fladd+3,f
  4241     0447  0852               	movf	??___fladd+3,w
  4242     0448  3A80               	xorlw	128
  4243     0449  00D3               	movwf	??___fladd+4
  4244     044A  3080               	movlw	128
  4245     044B  0253               	subwf	??___fladd+4,w
  4246     044C  1D03               	skipz
  4247     044D  2C50               	goto	u1805
  4248     044E  301A               	movlw	26
  4249     044F  0251               	subwf	??___fladd+2,w
  4250     0450                     u1805:
  4251     0450  1C03               	skipc
  4252     0451  2C53               	goto	u1801
  4253     0452  2C54               	goto	u1800
  4254     0453                     u1801:
  4255     0453  2C86               	goto	l1890
  4256     0454                     u1800:
  4257     0454                     l1876:
  4258     0454  0020               	movlb	0	; select bank0
  4259     0455  084A               	movf	___fladd@b+3,w
  4260     0456  0449               	iorwf	___fladd@b+2,w
  4261     0457  0448               	iorwf	___fladd@b+1,w
  4262     0458  0447               	iorwf	___fladd@b,w
  4263     0459  1D03               	skipz
  4264     045A  2C5C               	goto	u1811
  4265     045B  2C5E               	goto	u1810
  4266     045C                     u1811:
  4267     045C  3001               	movlw	1
  4268     045D  2C5F               	goto	u1820
  4269     045E                     u1810:
  4270     045E  3000               	movlw	0
  4271     045F                     u1820:
  4272     045F  00DA               	movwf	___fladd@grs
  4273     0460  3000               	movlw	0
  4274     0461  00CA               	movwf	___fladd@b+3
  4275     0462  3000               	movlw	0
  4276     0463  00C9               	movwf	___fladd@b+2
  4277     0464  3000               	movlw	0
  4278     0465  00C8               	movwf	___fladd@b+1
  4279     0466  3000               	movlw	0
  4280     0467  00C7               	movwf	___fladd@b
  4281     0468  0858               	movf	___fladd@aexp,w
  4282     0469  00D9               	movwf	___fladd@bexp
  4283     046A  2C8D               	goto	l633
  4284     046B                     l635:
  4285     046B  1C5A               	btfss	___fladd@grs,0
  4286     046C  2C6E               	goto	u1831
  4287     046D  2C6F               	goto	u1830
  4288     046E                     u1831:
  4289     046E  2C73               	goto	l1880
  4290     046F                     u1830:
  4291     046F                     l1878:
  4292     046F  365A               	lsrf	___fladd@grs,w
  4293     0470  3801               	iorlw	1
  4294     0471  00DA               	movwf	___fladd@grs
  4295     0472  2C75               	goto	l1882
  4296     0473                     l1880:
  4297     0473  1003               	clrc
  4298     0474  0CDA               	rrf	___fladd@grs,f
  4299     0475                     l1882:
  4300     0475  1C47               	btfss	___fladd@b,0
  4301     0476  2C78               	goto	u1841
  4302     0477  2C79               	goto	u1840
  4303     0478                     u1841:
  4304     0478  2C7A               	goto	l1886
  4305     0479                     u1840:
  4306     0479                     l1884:
  4307     0479  17DA               	bsf	___fladd@grs,7
  4308     047A                     l1886:
  4309     047A  3001               	movlw	1
  4310     047B  00CF               	movwf	??___fladd
  4311     047C                     u1855:
  4312     047C  37CA               	asrf	___fladd@b+3,f
  4313     047D  0CC9               	rrf	___fladd@b+2,f
  4314     047E  0CC8               	rrf	___fladd@b+1,f
  4315     047F  0CC7               	rrf	___fladd@b,f
  4316     0480  0BCF               	decfsz	??___fladd& (0+127),f
  4317     0481  2C7C               	goto	u1855
  4318     0482                     l1888:
  4319     0482  3001               	movlw	1
  4320     0483  00CF               	movwf	??___fladd
  4321     0484  084F               	movf	??___fladd,w
  4322     0485  07D9               	addwf	___fladd@bexp,f
  4323     0486                     l1890:
  4324     0486  0020               	movlb	0	; select bank0
  4325     0487  0858               	movf	___fladd@aexp,w
  4326     0488  0259               	subwf	___fladd@bexp,w
  4327     0489  1C03               	skipc
  4328     048A  2C8C               	goto	u1861
  4329     048B  2C8D               	goto	u1860
  4330     048C                     u1861:
  4331     048C  2C6B               	goto	l635
  4332     048D                     u1860:
  4333     048D                     l633:
  4334     048D  1B57               	btfsc	___fladd@signs,6
  4335     048E  2C90               	goto	u1871
  4336     048F  2C91               	goto	u1870
  4337     0490                     u1871:
  4338     0490  2CC7               	goto	l1916
  4339     0491                     u1870:
  4340     0491                     l1892:
  4341     0491  0859               	movf	___fladd@bexp,w
  4342     0492  1D03               	btfss	3,2
  4343     0493  2C95               	goto	u1881
  4344     0494  2C96               	goto	u1880
  4345     0495                     u1881:
  4346     0495  2C9F               	goto	l1898
  4347     0496                     u1880:
  4348     0496                     l1894:
  4349     0496  3000               	movlw	0
  4350     0497  00CA               	movwf	?___fladd+3
  4351     0498  3000               	movlw	0
  4352     0499  00C9               	movwf	?___fladd+2
  4353     049A  3000               	movlw	0
  4354     049B  00C8               	movwf	?___fladd+1
  4355     049C  3000               	movlw	0
  4356     049D  00C7               	movwf	?___fladd
  4357     049E  2DC1               	goto	l642
  4358     049F                     l1898:
  4359     049F  084B               	movf	___fladd@a,w
  4360     04A0  07C7               	addwf	___fladd@b,f
  4361     04A1  084C               	movf	___fladd@a+1,w
  4362     04A2  3DC8               	addwfc	___fladd@b+1,f
  4363     04A3  084D               	movf	___fladd@a+2,w
  4364     04A4  3DC9               	addwfc	___fladd@b+2,f
  4365     04A5  084E               	movf	___fladd@a+3,w
  4366     04A6  3DCA               	addwfc	___fladd@b+3,f
  4367     04A7                     l1900:
  4368     04A7  1C4A               	btfss	___fladd@b+3,0
  4369     04A8  2CAA               	goto	u1891
  4370     04A9  2CAB               	goto	u1890
  4371     04AA                     u1891:
  4372     04AA  2D53               	goto	l1950
  4373     04AB                     u1890:
  4374     04AB                     l1902:
  4375     04AB  1C5A               	btfss	___fladd@grs,0
  4376     04AC  2CAE               	goto	u1901
  4377     04AD  2CAF               	goto	u1900
  4378     04AE                     u1901:
  4379     04AE  2CB3               	goto	l1906
  4380     04AF                     u1900:
  4381     04AF                     l1904:
  4382     04AF  365A               	lsrf	___fladd@grs,w
  4383     04B0  3801               	iorlw	1
  4384     04B1  00DA               	movwf	___fladd@grs
  4385     04B2  2CB5               	goto	l1908
  4386     04B3                     l1906:
  4387     04B3  1003               	clrc
  4388     04B4  0CDA               	rrf	___fladd@grs,f
  4389     04B5                     l1908:
  4390     04B5  1C47               	btfss	___fladd@b,0
  4391     04B6  2CB8               	goto	u1911
  4392     04B7  2CB9               	goto	u1910
  4393     04B8                     u1911:
  4394     04B8  2CBA               	goto	l1912
  4395     04B9                     u1910:
  4396     04B9                     l1910:
  4397     04B9  17DA               	bsf	___fladd@grs,7
  4398     04BA                     l1912:
  4399     04BA  3001               	movlw	1
  4400     04BB  00CF               	movwf	??___fladd
  4401     04BC                     u1925:
  4402     04BC  37CA               	asrf	___fladd@b+3,f
  4403     04BD  0CC9               	rrf	___fladd@b+2,f
  4404     04BE  0CC8               	rrf	___fladd@b+1,f
  4405     04BF  0CC7               	rrf	___fladd@b,f
  4406     04C0  0BCF               	decfsz	??___fladd& (0+127),f
  4407     04C1  2CBC               	goto	u1925
  4408     04C2                     l1914:
  4409     04C2  3001               	movlw	1
  4410     04C3  00CF               	movwf	??___fladd
  4411     04C4  084F               	movf	??___fladd,w
  4412     04C5  07D9               	addwf	___fladd@bexp,f
  4413     04C6  2D53               	goto	l1950
  4414     04C7                     l1916:
  4415     04C7  084A               	movf	___fladd@b+3,w
  4416     04C8  3A80               	xorlw	128
  4417     04C9  00CF               	movwf	??___fladd
  4418     04CA  084E               	movf	___fladd@a+3,w
  4419     04CB  3A80               	xorlw	128
  4420     04CC  024F               	subwf	??___fladd,w
  4421     04CD  1D03               	skipz
  4422     04CE  2CD9               	goto	u1933
  4423     04CF  084D               	movf	___fladd@a+2,w
  4424     04D0  0249               	subwf	___fladd@b+2,w
  4425     04D1  1D03               	skipz
  4426     04D2  2CD9               	goto	u1933
  4427     04D3  084C               	movf	___fladd@a+1,w
  4428     04D4  0248               	subwf	___fladd@b+1,w
  4429     04D5  1D03               	skipz
  4430     04D6  2CD9               	goto	u1933
  4431     04D7  084B               	movf	___fladd@a,w
  4432     04D8  0247               	subwf	___fladd@b,w
  4433     04D9                     u1933:
  4434     04D9  1803               	skipnc
  4435     04DA  2CDC               	goto	u1931
  4436     04DB  2CDD               	goto	u1930
  4437     04DC                     u1931:
  4438     04DC  2D15               	goto	l1926
  4439     04DD                     u1930:
  4440     04DD                     l1918:
  4441     04DD  30FF               	movlw	255
  4442     04DE  00CF               	movwf	??___fladd
  4443     04DF  30FF               	movlw	255
  4444     04E0  00D0               	movwf	??___fladd+1
  4445     04E1  30FF               	movlw	255
  4446     04E2  00D1               	movwf	??___fladd+2
  4447     04E3  30FF               	movlw	255
  4448     04E4  00D2               	movwf	??___fladd+3
  4449     04E5  0847               	movf	___fladd@b,w
  4450     04E6  024B               	subwf	___fladd@a,w
  4451     04E7  00D3               	movwf	??___fladd+4
  4452     04E8  0848               	movf	___fladd@b+1,w
  4453     04E9  3B4C               	subwfb	___fladd@a+1,w
  4454     04EA  00D4               	movwf	??___fladd+5
  4455     04EB  0849               	movf	___fladd@b+2,w
  4456     04EC  3B4D               	subwfb	___fladd@a+2,w
  4457     04ED  00D5               	movwf	??___fladd+6
  4458     04EE  084A               	movf	___fladd@b+3,w
  4459     04EF  3B4E               	subwfb	___fladd@a+3,w
  4460     04F0  00D6               	movwf	??___fladd+7
  4461     04F1  0853               	movf	??___fladd+4,w
  4462     04F2  07CF               	addwf	??___fladd,f
  4463     04F3  0854               	movf	??___fladd+5,w
  4464     04F4  3DD0               	addwfc	??___fladd+1,f
  4465     04F5  0855               	movf	??___fladd+6,w
  4466     04F6  3DD1               	addwfc	??___fladd+2,f
  4467     04F7  0856               	movf	??___fladd+7,w
  4468     04F8  3DD2               	addwfc	??___fladd+3,f
  4469     04F9  0852               	movf	??___fladd+3,w
  4470     04FA  00CA               	movwf	___fladd@b+3
  4471     04FB  0851               	movf	??___fladd+2,w
  4472     04FC  00C9               	movwf	___fladd@b+2
  4473     04FD  0850               	movf	??___fladd+1,w
  4474     04FE  00C8               	movwf	___fladd@b+1
  4475     04FF  084F               	movf	??___fladd,w
  4476     0500  00C7               	movwf	___fladd@b
  4477     0501                     l1920:
  4478     0501  3080               	movlw	128
  4479     0502  00CF               	movwf	??___fladd
  4480     0503  084F               	movf	??___fladd,w
  4481     0504  06D7               	xorwf	___fladd@signs,f
  4482     0505  09DA               	comf	___fladd@grs,f
  4483     0506  0ADA               	incf	___fladd@grs,f
  4484     0507                     l1922:
  4485     0507  085A               	movf	___fladd@grs,w
  4486     0508  1D03               	btfss	3,2
  4487     0509  2D0B               	goto	u1941
  4488     050A  2D0C               	goto	u1940
  4489     050B                     u1941:
  4490     050B  2D1D               	goto	l650
  4491     050C                     u1940:
  4492     050C                     l1924:
  4493     050C  3001               	movlw	1
  4494     050D  07C7               	addwf	___fladd@b,f
  4495     050E  3000               	movlw	0
  4496     050F  3DC8               	addwfc	___fladd@b+1,f
  4497     0510  3000               	movlw	0
  4498     0511  3DC9               	addwfc	___fladd@b+2,f
  4499     0512  3000               	movlw	0
  4500     0513  3DCA               	addwfc	___fladd@b+3,f
  4501     0514  2D1D               	goto	l650
  4502     0515                     l1926:
  4503     0515  084B               	movf	___fladd@a,w
  4504     0516  02C7               	subwf	___fladd@b,f
  4505     0517  084C               	movf	___fladd@a+1,w
  4506     0518  3BC8               	subwfb	___fladd@b+1,f
  4507     0519  084D               	movf	___fladd@a+2,w
  4508     051A  3BC9               	subwfb	___fladd@b+2,f
  4509     051B  084E               	movf	___fladd@a+3,w
  4510     051C  3BCA               	subwfb	___fladd@b+3,f
  4511     051D                     l650:
  4512     051D  084A               	movf	___fladd@b+3,w
  4513     051E  0449               	iorwf	___fladd@b+2,w
  4514     051F  0448               	iorwf	___fladd@b+1,w
  4515     0520  0447               	iorwf	___fladd@b,w
  4516     0521  1D03               	skipz
  4517     0522  2D24               	goto	u1951
  4518     0523  2D25               	goto	u1950
  4519     0524                     u1951:
  4520     0524  2D4F               	goto	l1948
  4521     0525                     u1950:
  4522     0525                     l1928:
  4523     0525  085A               	movf	___fladd@grs,w
  4524     0526  1D03               	btfss	3,2
  4525     0527  2D29               	goto	u1961
  4526     0528  2D2A               	goto	u1960
  4527     0529                     u1961:
  4528     0529  2D4F               	goto	l1948
  4529     052A                     u1960:
  4530     052A                     l1930:
  4531     052A  3000               	movlw	0
  4532     052B  00CA               	movwf	?___fladd+3
  4533     052C  3000               	movlw	0
  4534     052D  00C9               	movwf	?___fladd+2
  4535     052E  3000               	movlw	0
  4536     052F  00C8               	movwf	?___fladd+1
  4537     0530  3000               	movlw	0
  4538     0531  00C7               	movwf	?___fladd
  4539     0532  2DC1               	goto	l642
  4540     0533                     l1934:
  4541     0533  3001               	movlw	1
  4542     0534                     u1975:
  4543     0534  35C7               	lslf	___fladd@b,f
  4544     0535  0DC8               	rlf	___fladd@b+1,f
  4545     0536  0DC9               	rlf	___fladd@b+2,f
  4546     0537  0DCA               	rlf	___fladd@b+3,f
  4547     0538  0B89               	decfsz	9,f
  4548     0539  2D34               	goto	u1975
  4549     053A                     l1936:
  4550     053A  1FDA               	btfss	___fladd@grs,7
  4551     053B  2D3D               	goto	u1981
  4552     053C  2D3E               	goto	u1980
  4553     053D                     u1981:
  4554     053D  2D3F               	goto	l654
  4555     053E                     u1980:
  4556     053E                     l1938:
  4557     053E  1447               	bsf	___fladd@b,0
  4558     053F                     l654:
  4559     053F  1C5A               	btfss	___fladd@grs,0
  4560     0540  2D42               	goto	u1991
  4561     0541  2D43               	goto	u1990
  4562     0542                     u1991:
  4563     0542  2D46               	goto	l1942
  4564     0543                     u1990:
  4565     0543                     l1940:
  4566     0543  1403               	setc
  4567     0544  0DDA               	rlf	___fladd@grs,f
  4568     0545  2D48               	goto	l1944
  4569     0546                     l1942:
  4570     0546  1003               	clrc
  4571     0547  0DDA               	rlf	___fladd@grs,f
  4572     0548                     l1944:
  4573     0548  0859               	movf	___fladd@bexp,w
  4574     0549  1903               	btfsc	3,2
  4575     054A  2D4C               	goto	u2001
  4576     054B  2D4D               	goto	u2000
  4577     054C                     u2001:
  4578     054C  2D4F               	goto	l1948
  4579     054D                     u2000:
  4580     054D                     l1946:
  4581     054D  3001               	movlw	1
  4582     054E  02D9               	subwf	___fladd@bexp,f
  4583     054F                     l1948:
  4584     054F  1FC9               	btfss	___fladd@b+2,7
  4585     0550  2D52               	goto	u2011
  4586     0551  2D53               	goto	u2010
  4587     0552                     u2011:
  4588     0552  2D33               	goto	l1934
  4589     0553                     u2010:
  4590     0553                     l1950:
  4591     0553  01D8               	clrf	___fladd@aexp
  4592     0554                     l1952:
  4593     0554  1FDA               	btfss	___fladd@grs,7
  4594     0555  2D57               	goto	u2021
  4595     0556  2D58               	goto	u2020
  4596     0557                     u2021:
  4597     0557  2D66               	goto	l1960
  4598     0558                     u2020:
  4599     0558                     l1954:
  4600     0558  085A               	movf	___fladd@grs,w
  4601     0559  397F               	andlw	127
  4602     055A  1903               	btfsc	3,2
  4603     055B  2D5D               	goto	u2031
  4604     055C  2D5E               	goto	u2030
  4605     055D                     u2031:
  4606     055D  2D61               	goto	l660
  4607     055E                     u2030:
  4608     055E                     l1956:
  4609     055E  01D8               	clrf	___fladd@aexp
  4610     055F  0AD8               	incf	___fladd@aexp,f
  4611     0560  2D66               	goto	l1960
  4612     0561                     l660:
  4613     0561  1C47               	btfss	___fladd@b,0
  4614     0562  2D64               	goto	u2041
  4615     0563  2D65               	goto	u2040
  4616     0564                     u2041:
  4617     0564  2D66               	goto	l1960
  4618     0565                     u2040:
  4619     0565  2D5E               	goto	l1956
  4620     0566                     l1960:
  4621     0566  0858               	movf	___fladd@aexp,w
  4622     0567  1903               	btfsc	3,2
  4623     0568  2D6A               	goto	u2051
  4624     0569  2D6B               	goto	u2050
  4625     056A                     u2051:
  4626     056A  2D98               	goto	l663
  4627     056B                     u2050:
  4628     056B                     l1962:
  4629     056B  3001               	movlw	1
  4630     056C  07C7               	addwf	___fladd@b,f
  4631     056D  3000               	movlw	0
  4632     056E  3DC8               	addwfc	___fladd@b+1,f
  4633     056F  3000               	movlw	0
  4634     0570  3DC9               	addwfc	___fladd@b+2,f
  4635     0571  3000               	movlw	0
  4636     0572  3DCA               	addwfc	___fladd@b+3,f
  4637     0573                     l1964:
  4638     0573  1C4A               	btfss	___fladd@b+3,0
  4639     0574  2D76               	goto	u2061
  4640     0575  2D77               	goto	u2060
  4641     0576                     u2061:
  4642     0576  2D98               	goto	l663
  4643     0577                     u2060:
  4644     0577                     l1966:
  4645     0577  0847               	movf	___fladd@b,w
  4646     0578  00CF               	movwf	??___fladd
  4647     0579  0848               	movf	___fladd@b+1,w
  4648     057A  00D0               	movwf	??___fladd+1
  4649     057B  0849               	movf	___fladd@b+2,w
  4650     057C  00D1               	movwf	??___fladd+2
  4651     057D  084A               	movf	___fladd@b+3,w
  4652     057E  00D2               	movwf	??___fladd+3
  4653     057F  3001               	movlw	1
  4654     0580  00D3               	movwf	??___fladd+4
  4655     0581                     u2075:
  4656     0581  37D2               	asrf	??___fladd+3,f
  4657     0582  0CD1               	rrf	??___fladd+2,f
  4658     0583  0CD0               	rrf	??___fladd+1,f
  4659     0584  0CCF               	rrf	??___fladd,f
  4660     0585                     u2070:
  4661     0585  0BD3               	decfsz	??___fladd+4,f
  4662     0586  2D81               	goto	u2075
  4663     0587  0852               	movf	??___fladd+3,w
  4664     0588  00CA               	movwf	___fladd@b+3
  4665     0589  0851               	movf	??___fladd+2,w
  4666     058A  00C9               	movwf	___fladd@b+2
  4667     058B  0850               	movf	??___fladd+1,w
  4668     058C  00C8               	movwf	___fladd@b+1
  4669     058D  084F               	movf	??___fladd,w
  4670     058E  00C7               	movwf	___fladd@b
  4671     058F  0A59               	incf	___fladd@bexp,w
  4672     0590  1903               	btfsc	3,2
  4673     0591  2D93               	goto	u2081
  4674     0592  2D94               	goto	u2080
  4675     0593                     u2081:
  4676     0593  2D98               	goto	l663
  4677     0594                     u2080:
  4678     0594                     l1968:
  4679     0594  3001               	movlw	1
  4680     0595  00CF               	movwf	??___fladd
  4681     0596  084F               	movf	??___fladd,w
  4682     0597  07D9               	addwf	___fladd@bexp,f
  4683     0598                     l663:
  4684     0598  0A59               	incf	___fladd@bexp,w
  4685     0599  1903               	btfsc	3,2
  4686     059A  2D9C               	goto	u2091
  4687     059B  2D9D               	goto	u2090
  4688     059C                     u2091:
  4689     059C  2DA2               	goto	l1972
  4690     059D                     u2090:
  4691     059D                     l1970:
  4692     059D  0859               	movf	___fladd@bexp,w
  4693     059E  1D03               	btfss	3,2
  4694     059F  2DA1               	goto	u2101
  4695     05A0  2DA2               	goto	u2100
  4696     05A1                     u2101:
  4697     05A1  2DB0               	goto	l1978
  4698     05A2                     u2100:
  4699     05A2                     l1972:
  4700     05A2  3000               	movlw	0
  4701     05A3  00CA               	movwf	___fladd@b+3
  4702     05A4  3000               	movlw	0
  4703     05A5  00C9               	movwf	___fladd@b+2
  4704     05A6  3000               	movlw	0
  4705     05A7  00C8               	movwf	___fladd@b+1
  4706     05A8  3000               	movlw	0
  4707     05A9  00C7               	movwf	___fladd@b
  4708     05AA                     l1974:
  4709     05AA  0859               	movf	___fladd@bexp,w
  4710     05AB  1D03               	btfss	3,2
  4711     05AC  2DAE               	goto	u2111
  4712     05AD  2DAF               	goto	u2110
  4713     05AE                     u2111:
  4714     05AE  2DB0               	goto	l1978
  4715     05AF                     u2110:
  4716     05AF                     l1976:
  4717     05AF  01D7               	clrf	___fladd@signs
  4718     05B0                     l1978:
  4719     05B0  1C59               	btfss	___fladd@bexp,0
  4720     05B1  2DB3               	goto	u2121
  4721     05B2  2DB4               	goto	u2120
  4722     05B3                     u2121:
  4723     05B3  2DB6               	goto	l1982
  4724     05B4                     u2120:
  4725     05B4                     l1980:
  4726     05B4  17C9               	bsf	___fladd@b+2,7
  4727     05B5  2DBA               	goto	l671
  4728     05B6                     l1982:
  4729     05B6  307F               	movlw	127
  4730     05B7  00CF               	movwf	??___fladd
  4731     05B8  084F               	movf	??___fladd,w
  4732     05B9  05C9               	andwf	___fladd@b+2,f
  4733     05BA                     l671:
  4734     05BA  3659               	lsrf	___fladd@bexp,w
  4735     05BB  00CA               	movwf	___fladd@b+3
  4736     05BC                     l1984:
  4737     05BC  1FD7               	btfss	___fladd@signs,7
  4738     05BD  2DBF               	goto	u2131
  4739     05BE  2DC0               	goto	u2130
  4740     05BF                     u2131:
  4741     05BF  2DC1               	goto	l672
  4742     05C0                     u2130:
  4743     05C0                     l1986:
  4744     05C0  17CA               	bsf	___fladd@b+3,7
  4745     05C1                     l672:
  4746     05C1                     l642:
  4747     05C1  0008               	return
  4748     05C2                     __end_of___fladd:
  4749     007E                     btemp	set	126	;btemp
  4750     007E                     wtemp0	set	126
  4751                           
  4752                           	psect	idloc
  4753                           
  4754                           ;Config register IDLOC0 @ 0x8000
  4755                           ;	unspecified, using default values
  4756     8000                     	org	32768
  4757     8000  3FFF               	dw	16383
  4758                           
  4759                           ;Config register IDLOC1 @ 0x8001
  4760                           ;	unspecified, using default values
  4761     8001                     	org	32769
  4762     8001  3FFF               	dw	16383
  4763                           
  4764                           ;Config register IDLOC2 @ 0x8002
  4765                           ;	unspecified, using default values
  4766     8002                     	org	32770
  4767     8002  3FFF               	dw	16383
  4768                           
  4769                           ;Config register IDLOC3 @ 0x8003
  4770                           ;	unspecified, using default values
  4771     8003                     	org	32771
  4772     8003  3FFF               	dw	16383
  4773                           
  4774                           	psect	config
  4775                           
  4776                           ;Config register CONFIG1 @ 0x8007
  4777                           ;	Oscillator Selection Bits
  4778                           ;	FOSC = INTOSC, INTOSC oscillator: I/O function on CLKIN pin
  4779                           ;	Watchdog Timer Enable
  4780                           ;	WDTE = OFF, WDT disabled
  4781                           ;	Power-up Timer Enable
  4782                           ;	PWRTE = ON, PWRT enabled
  4783                           ;	MCLR Pin Function Select
  4784                           ;	MCLRE = ON, MCLR/VPP pin function is MCLR
  4785                           ;	Flash Program Memory Code Protection
  4786                           ;	CP = OFF, Program memory code protection is disabled
  4787                           ;	Brown-out Reset Enable
  4788                           ;	BOREN = ON, Brown-out Reset enabled
  4789                           ;	Clock Out Enable
  4790                           ;	CLKOUTEN = OFF, CLKOUT function is disabled. I/O or oscillator function on the CLKOUT 
      +                          pin
  4791                           ;	Internal/External Switchover Mode
  4792                           ;	IESO = OFF, Internal/External Switchover Mode is disabled
  4793                           ;	Fail-Safe Clock Monitor Enable
  4794                           ;	FCMEN = OFF, Fail-Safe Clock Monitor is disabled
  4795     8007                     	org	32775
  4796     8007  0FC4               	dw	4036
  4797                           
  4798                           ;Config register CONFIG2 @ 0x8008
  4799                           ;	Flash Memory Self-Write Protection
  4800                           ;	WRT = OFF, Write protection off
  4801                           ;	Peripheral Pin Select one-way control
  4802                           ;	PPS1WAY = ON, The PPSLOCK bit cannot be cleared once it is set by software
  4803                           ;	Zero-cross detect disable
  4804                           ;	ZCD = OFF, Zero-cross detect circuit is disabled at POR
  4805                           ;	Phase Lock Loop enable
  4806                           ;	PLLEN = ON, 4x PLL is always enabled
  4807                           ;	Stack Overflow/Underflow Reset Enable
  4808                           ;	STVREN = ON, Stack Overflow or Underflow will cause a Reset
  4809                           ;	Brown-out Reset Voltage Selection
  4810                           ;	BORV = HI, Brown-out Reset Voltage (Vbor), high trip point selected.
  4811                           ;	Low-Power Brown Out Reset
  4812                           ;	LPBOR = OFF, Low-Power BOR is disabled
  4813                           ;	Low-Voltage Programming Enable
  4814                           ;	LVP = OFF, High-voltage on MCLR/VPP must be used for programming
  4815     8008                     	org	32776
  4816     8008  1BFF               	dw	7167

Data Sizes:
    Strings     0
    Constant    0
    Data        0
    BSS         0
    Persistent  32
    Stack       0

Auto Spaces:
    Space          Size  Autos    Used
    COMMON           14     14      14
    BANK0            80     73      73
    BANK1            80      0       0
    BANK2            80      0       0
    BANK3            80      0       0
    BANK4            80      0       0
    BANK5            80      0       0
    BANK6            80      0       0
    BANK7            80      0       0
    BANK8            80      0       0
    BANK9            80      0       0
    BANK10           80      0       0
    BANK11           80      0       0
    BANK12           48      0       0
    BANK13           80      0       0
    BANK14           80      0       0
    BANK15           80      0       0
    BANK16           80      0       0
    BANK17           80      0       0
    BANK18           80      0       0
    BANK19           80      0       0
    BANK20           80      0       0
    BANK21           80      0       0
    BANK22           80      0       0
    BANK23           80      0       0
    BANK24           80      0       0
    BANK25           32      0       0

Pointer List with Targets:

    None.

Critical Paths under _main in COMMON

    _main->___xxtofl
    _Servo5->___xxtofl
    _Servo12->___xxtofl
    ___flmul->___fldiv
    ___fladd->___fldiv

Critical Paths under _main in BANK0

    _main->_Servo12
    _main->_Servo5
    _Servo5->___fladd
    _Servo12->___fladd
    ___flmul->___fldiv
    ___fladd->___flmul

Critical Paths under _main in BANK1

    None.

Critical Paths under _main in BANK2

    None.

Critical Paths under _main in BANK3

    None.

Critical Paths under _main in BANK4

    None.

Critical Paths under _main in BANK5

    None.

Critical Paths under _main in BANK6

    None.

Critical Paths under _main in BANK7

    None.

Critical Paths under _main in BANK8

    None.

Critical Paths under _main in BANK9

    None.

Critical Paths under _main in BANK10

    None.

Critical Paths under _main in BANK11

    None.

Critical Paths under _main in BANK12

    None.

Critical Paths under _main in BANK13

    None.

Critical Paths under _main in BANK14

    None.

Critical Paths under _main in BANK15

    None.

Critical Paths under _main in BANK16

    None.

Critical Paths under _main in BANK17

    None.

Critical Paths under _main in BANK18

    None.

Critical Paths under _main in BANK19

    None.

Critical Paths under _main in BANK20

    None.

Critical Paths under _main in BANK21

    None.

Critical Paths under _main in BANK22

    None.

Critical Paths under _main in BANK23

    None.

Critical Paths under _main in BANK24

    None.

Critical Paths under _main in BANK25

    None.

Call Graph Tables:

 ---------------------------------------------------------------------------------
 (Depth) Function   	        Calls       Base Space   Used Autos Params    Refs
 ---------------------------------------------------------------------------------
 (0) _main                                                 6     6      0   16798
                                             67 BANK0      6     6      0
                            _Servo12
                             _Servo5
                           ___xxtofl
 ---------------------------------------------------------------------------------
 (1) ___xxtofl                                            14    10      4     626
                                              0 COMMON    14    10      4
 ---------------------------------------------------------------------------------
 (1) _Servo5                                               8     4      4    7996
                                             59 BANK0      8     4      4
                            ___fladd
                            ___fldiv
                             ___flge
                            ___flmul
                            ___fltol
                           ___xxtofl (ARG)
 ---------------------------------------------------------------------------------
 (1) _Servo12                                              8     4      4    7996
                                             59 BANK0      8     4      4
                            ___fladd
                            ___fldiv
                             ___flge
                            ___flmul
                            ___fltol
                           ___xxtofl (ARG)
 ---------------------------------------------------------------------------------
 (2) ___fltol                                             10     6      4     533
                                              0 COMMON    10     6      4
 ---------------------------------------------------------------------------------
 (2) ___flmul                                             26    18      8    2569
                                             13 BANK0     26    18      8
                          __Umul8_16
                            ___fldiv (ARG)
 ---------------------------------------------------------------------------------
 (3) __Umul8_16                                            9     7      2     799
                                              0 COMMON     9     7      2
 ---------------------------------------------------------------------------------
 (2) ___flge                                              12     4      8     790
                                              0 COMMON    12     4      8
 ---------------------------------------------------------------------------------
 (2) ___fldiv                                             26    18      8    1425
                                              0 COMMON    13     5      8
                                              0 BANK0     13    13      0
 ---------------------------------------------------------------------------------
 (2) ___fladd                                             20    12      8    2414
                                             39 BANK0     20    12      8
                            ___fldiv (ARG)
                            ___flmul (ARG)
 ---------------------------------------------------------------------------------
 Estimated maximum stack depth 3
 ---------------------------------------------------------------------------------

 Call Graph Graphs:

 _main (ROOT)
   _Servo12
     ___fladd
       ___fldiv (ARG)
       ___flmul (ARG)
         __Umul8_16
         ___fldiv (ARG)
     ___fldiv
     ___flge
     ___flmul
     ___fltol
     ___xxtofl (ARG)
   _Servo5
     ___fladd
     ___fldiv
     ___flge
     ___flmul
     ___fltol
     ___xxtofl (ARG)
   ___xxtofl

 Address spaces:
Name               Size   Autos  Total    Cost      Usage
BIGRAM_1           3E0      0       0       0        0.0%
NULL                 0      0       0       0        0.0%
CODE                 0      0       0       0        0.0%
BIGRAM             3F0      0       0       1        0.0%
BITSFR0              0      0       0       1        0.0%
SFR0                 0      0       0       1        0.0%
BITCOMMON            E      0       0       2        0.0%
BITSFR1              0      0       0       2        0.0%
SFR1                 0      0       0       2        0.0%
COMMON               E      E       E       3      100.0%
BITSFR2              0      0       0       3        0.0%
SFR2                 0      0       0       3        0.0%
BITSFR3              0      0       0       4        0.0%
SFR3                 0      0       0       4        0.0%
STACK                0      0       0       4        0.0%
BANK0               50     49      49       5       91.2%
BITSFR4              0      0       0       5        0.0%
SFR4                 0      0       0       5        0.0%
BITBANK0            50      0       0       6        0.0%
BITSFR5              0      0       0       6        0.0%
SFR5                 0      0       0       6        0.0%
BITBANK1            50      0       0       7        0.0%
BITSFR6              0      0       0       7        0.0%
SFR6                 0      0       0       7        0.0%
BANK1               50      0       0       8        0.0%
BITSFR7              0      0       0       8        0.0%
SFR7                 0      0       0       8        0.0%
BITBANK2            50      0       0       9        0.0%
BITSFR8              0      0       0       9        0.0%
SFR8                 0      0       0       9        0.0%
BANK2               50      0       0      10        0.0%
BITSFR9              0      0       0      10        0.0%
SFR9                 0      0       0      10        0.0%
BITBANK3            50      0       0      11        0.0%
BITSFR10             0      0       0      11        0.0%
SFR10                0      0       0      11        0.0%
BANK3               50      0       0      12        0.0%
BITSFR11             0      0       0      12        0.0%
SFR11                0      0       0      12        0.0%
BITSFR12             0      0       0      13        0.0%
SFR12                0      0       0      13        0.0%
ABS                  0      0       0      13        0.0%
BITBANK4            50      0       0      14        0.0%
BITSFR13             0      0       0      14        0.0%
SFR13                0      0       0      14        0.0%
BANK4               50      0       0      15        0.0%
BITSFR14             0      0       0      15        0.0%
SFR14                0      0       0      15        0.0%
BITBANK5            50      0       0      16        0.0%
BITSFR15             0      0       0      16        0.0%
SFR15                0      0       0      16        0.0%
BANK5               50      0       0      17        0.0%
BITSFR16             0      0       0      17        0.0%
SFR16                0      0       0      17        0.0%
BITBANK6            50      0       0      18        0.0%
BITSFR17             0      0       0      18        0.0%
SFR17                0      0       0      18        0.0%
BANK6               50      0       0      19        0.0%
BITSFR18             0      0       0      19        0.0%
SFR18                0      0       0      19        0.0%
BITBANK7            50      0       0      20        0.0%
BITSFR19             0      0       0      20        0.0%
SFR19                0      0       0      20        0.0%
BANK7               50      0       0      21        0.0%
BITSFR20             0      0       0      21        0.0%
SFR20                0      0       0      21        0.0%
BITBANK8            50      0       0      22        0.0%
BITSFR21             0      0       0      22        0.0%
SFR21                0      0       0      22        0.0%
BANK8               50      0       0      23        0.0%
BITSFR22             0      0       0      23        0.0%
SFR22                0      0       0      23        0.0%
BITBANK9            50      0       0      24        0.0%
BITSFR23             0      0       0      24        0.0%
SFR23                0      0       0      24        0.0%
BANK9               50      0       0      25        0.0%
BITSFR24             0      0       0      25        0.0%
SFR24                0      0       0      25        0.0%
BITBANK10           50      0       0      26        0.0%
BITSFR25             0      0       0      26        0.0%
SFR25                0      0       0      26        0.0%
BANK10              50      0       0      27        0.0%
BITSFR26             0      0       0      27        0.0%
SFR26                0      0       0      27        0.0%
BITBANK11           50      0       0      28        0.0%
BITSFR27             0      0       0      28        0.0%
SFR27                0      0       0      28        0.0%
BANK11              50      0       0      29        0.0%
BITSFR28             0      0       0      29        0.0%
SFR28                0      0       0      29        0.0%
BITSFR29             0      0       0      30        0.0%
SFR29                0      0       0      30        0.0%
DATA                 0      0       0      30        0.0%
BITBANK12           30      0       0      31        0.0%
BITSFR30             0      0       0      31        0.0%
SFR30                0      0       0      31        0.0%
BANK12              30      0       0      32        0.0%
BITSFR31             0      0       0      32        0.0%
SFR31                0      0       0      32        0.0%
BITBANK13           50      0       0      33        0.0%
BANK13              50      0       0      34        0.0%
BITBANK14           50      0       0      35        0.0%
BANK14              50      0       0      36        0.0%
BITBANK15           50      0       0      37        0.0%
BANK15              50      0       0      38        0.0%
BITBANK16           50      0       0      39        0.0%
BANK16              50      0       0      40        0.0%
BITBANK17           50      0       0      41        0.0%
BANK17              50      0       0      42        0.0%
BITBANK18           50      0       0      43        0.0%
BANK18              50      0       0      44        0.0%
BITBANK19           50      0       0      45        0.0%
BANK19              50      0       0      46        0.0%
BITBANK20           50      0       0      47        0.0%
BANK20              50      0       0      48        0.0%
BITBANK21           50      0       0      49        0.0%
BANK21              50      0       0      50        0.0%
BITBANK22           50      0       0      51        0.0%
BANK22              50      0       0      52        0.0%
BITBANK23           50      0       0      53        0.0%
BANK23              50      0       0      54        0.0%
BITBANK24           50      0       0      55        0.0%
BANK24              50      0       0      56        0.0%
BITBANK25           20      0       0      57        0.0%
BANK25              20      0       0      58        0.0%


Microchip Technology PIC Macro Assembler V2.40 build 20220703182018 
Symbol Table                                                                                   Tue Aug 15 20:57:27 2023

           ___fldiv@aexp 002C             ___fldiv@bexp 002B             ___fldiv@sign 0024  
    __Umul8_16@word_mpld 0076                      l260 0F59                      l249 0FFF  
                    l514 0EB3                      l506 0E46                      l522 0E29  
                    l532 0E29                      l701 033F                      l509 0E9A  
                    l633 048D                      l529 0E14                      l650 051D  
                    l642 05C1                      l706 038B                      l635 046B  
                    l707 03A5                      l731 077C                      l660 0561  
                    l629 0410                      l709 03B2                      l725 07FC  
                    l654 053F                      l671 05BA                      l663 0598  
                    l672 05C1                      l744 0023                      l737 07F0  
                    l746 0033                      l771 00DD                      l685 0261  
                    l782 00A9                      l687 03B9                      l783 00B5  
                    l775 008F                      l769 0056                      wreg 0009  
           ___flmul@aexp 003F             ___flmul@bexp 0040             ___flmul@sign 003A  
           ___flmul@temp 0045             ___flmul@prod 0041             ___fltol@exp1 0079  
                   l2000 0225                     l2010 023D                     l2002 022D  
                   l2100 0349                     l2020 024E                     l2012 023F  
                   l2004 022E                     l2110 037E                     l2102 0351  
                   l2030 0275                     l2022 0256                     l2014 0243  
                   l2006 0230                     l2120 03AC                     l2112 0399  
                   l2104 0355                     l2032 0279                     l2024 0257  
                   l2016 0244                     l2008 0238                     l2200 06D7  
                   l2122 03AE                     l2114 039C                     l2106 036D  
                   l2050 02B8                     l2042 0290                     l2018 0249  
                   l2026 0259                     l2210 0732                     l2202 06E9  
                   l2130 05C6                     l2116 03A4                     l2108 0371  
                   l2060 02D2                     l2052 02BA                     l2044 02A0  
                   l2028 0269                     l2036 0282                     l2220 0751  
                   l2212 0739                     l2204 06F4                     l2140 05D7  
                   l2132 05C8                     l2300 003E                     l2118 03A8  
                   l2054 02BF                     l2062 02D9                     l2070 02F8  
                   l2046 02A8                     l2038 0287                     l2230 0765  
                   l2222 0758                     l2214 0745                     l2206 0706  
                   l2150 05F0                     l2142 05DF                     l2134 05CC  
                   l2310 006A                     l2302 004E                     l2080 0313  
                   l2072 02FE                     l2064 02EB                     l2056 02CD  
                   l2048 02B0                     l2240 078E                     l2232 0779  
                   l2216 074C                     l2224 075C                     l2208 071B  
                   l2160 0607                     l2152 05F4                     l2144 05E1  
                   l2136 05CD                     l2128 05C2                     l2320 0096  
                   l2312 0075                     l2304 005E                     l2400 012C  
                   l2090 0324                     l2082 0314                     l2074 0306  
                   l2066 02EC                     l2058 02D1                     l2250 07C5  
                   l2242 0792                     l2226 0760                     l2218 0750  
                   l2162 0609                     l2154 05F5                     l2146 05E9  
                   l2138 05D2                     l2330 00CB                     l2322 009F  
                   l2314 007C                     l2410 0136                     l2402 012D  
                   l2092 0328                     l2084 031B                     l2076 0308  
                   l2068 02F4                     l2260 07ED                     l2252 07D3  
                   l2244 07AA                     l2236 0781                     l2228 0761  
                   l2180 0661                     l2172 0624                     l2164 0611  
                   l2156 05FA                     l2148 05EE                     l2332 00D0  
                   l2324 00A3                     l2316 0080                     l2308 0067  
                   l2420 013C                     l2412 0137                     l2404 012E  
                   l2340 00DE                     l2094 033C                     l2078 030F  
                   l2086 031F                     l2262 07EE                     l2254 07DC  
                   l2238 0786                     l2246 07AE                     l2190 06A5  
                   l2182 0679                     l2174 062F                     l2166 0616  
                   l2158 05FF                     l2270 0F72                     l2334 00D4  
                   l2326 00AD                     l2318 0088                     l2430 0144  
                   l2422 013E                     l2414 0138                     l2406 0131  
                   l2350 00F0                     l2342 00E1                     l1800 03C4  
                   l2088 0323                     l2264 07F4                     l2256 07DE  
                   l2248 07BB                     l2192 06AC                     l2184 0686  
                   l2176 063C                     l2168 061B                     l2272 0F7B  
                   l2336 00D5                     l2328 00B7                     l2440 0159  
                   l2432 0145                     l2424 0140                     l2416 0139  
                   l2408 0134                     l2360 00FC                     l2352 00F2  
                   l2344 00E3                     l1810 03D8                     l1802 03C5  
                   l2098 0344                     l1730 001F                     l2258 07E9  
                   l2194 06B7                     l2186 0693                     l2178 0654  
                   l2290 0EF6                     l2282 0EB4                     l2274 0F93  
                   l2450 015F                     l2442 015B                     l2434 0146  
                   l2426 0142                     l2418 013A                     l2370 0109  
                   l2362 00FE                     l2354 00F5                     l2346 00E6  
                   l1900 04A7                     l1820 03EC                     l1804 03CA  
                   l1812 03DA                     l1740 0E3E                     l1732 002A  
                   l1724 0012                     l2196 06BE                     l2188 069A  
                   l2292 0F58                     l2284 0ECC                     l2276 0F9C  
                   l2268 0F5A                     l2460 0168                     l2452 0161  
                   l2444 015C                     l2436 0153                     l2428 0143  
                   l2380 0115                     l2372 010B                     l2364 0100  
                   l2356 00F6                     l2348 00E9                     l1910 04B9  
                   l1902 04AB                     l1830 03FD                     l1822 03EE  
                   l1814 03E2                     l1806 03CF                     l1750 0E82  
                   l1742 0E5A                     l1734 002F                     l1726 0014  
                   l2198 06D0                     l2286 0ED5                     l2278 0FFE  
                   l2462 0169                     l2454 0163                     l2446 015D  
                   l2438 0156                     l2390 0121                     l2382 0117  
                   l2374 010C                     l2366 0103                     l2358 00F7  
                   l1920 0501                     l1912 04BA                     l1904 04AF  
                   l1840 041A                     l1832 0405                     l1824 03F2  
                   l1816 03E5                     l1808 03D7                     l1752 0EB0  
                   l1744 0E62                     l1728 001B                     l1760 0DC3  
                   l2288 0EED                     l2296 0035                     l2480 01C0  
                   l2472 016E                     l2464 016A                     l2456 0165  
                   l2448 015E                     l2392 0123                     l2384 0118  
                   l2376 010F                     l2368 0106                     l1930 052A  
                   l1922 0507                     l1914 04C2                     l1906 04B3  
                   l1850 0426                     l1842 041E                     l1834 0406  
                   l1826 03F3                     l1818 03EB                     l1754 0EB2  
                   l1746 0E66                     l1738 0E2A                     l1770 0DE6  
                   l2298 003A                     l2490 0204                     l2474 01A2  
                   l2466 016B                     l2458 0167                     l2394 0124  
                   l2386 011B                     l2378 0112                     l1940 0543  
                   l1924 050C                     l1908 04B5                     l1916 04C7  
                   l1860 0430                     l1852 0428                     l1844 0420  
                   l1828 03F8                     l1836 0408                     l1748 0E7E  
                   l1780 0DF4                     l1772 0DE8                     l1764 0DCC  
                   l2492 0209                     l2476 01AE                     l2396 0127  
                   l2388 011E                     l1942 0546                     l1934 0533  
                   l1918 04DD                     l1926 0515                     l1950 0553  
                   l1870 043A                     l1862 0432                     l1854 042A  
                   l1846 0422                     l1838 0416                     l1790 0E19  
                   l1774 0DEC                     l1782 0E04                     l1766 0DDD  
                   l1758 0DBA                     l2486 01C5                     l2478 01B3  
                   l2398 012A                     l1960 0566                     l1952 0554  
                   l1944 0548                     l1936 053A                     l1928 0525  
                   l1880 0473                     l1864 0434                     l1856 042C  
                   l1848 0424                     l1872 043C                     l1792 0E1E  
                   l1768 0DDE                     l2488 01F8                     l1970 059D  
                   l1962 056B                     l1954 0558                     l1946 054D  
                   l1938 053E                     l1882 0475                     l1890 0486  
                   l1874 043D                     l1866 0436                     l1858 042E  
                   l1794 03BA                     l1980 05B4                     l1972 05A2  
                   l1964 0573                     l1956 055E                     l1948 054F  
                   l1892 0491                     l1884 0479                     l1876 0454  
                   l1868 0438                     l1796 03BE                     l1788 0E0B  
                   l1982 05B6                     l1974 05AA                     l1966 0577  
                   l1894 0496                     l1886 047A                     l1878 046F  
                   l1798 03C0                     l1990 0214                     l1984 05BC  
                   l1976 05AF                     l1968 0594                     l1888 0482  
                   l1992 0216                     l1986 05C0                     l1978 05B0  
                   l1898 049F                     l1994 021A                     l1996 021B  
                   l1988 0210                     l1998 0220                     u2000 054D  
                   u2001 054C                     u2010 0553                     u2011 0552  
                   u2100 05A2                     u2020 0558                     u2101 05A1  
                   u2021 0557                     u2110 05AF                     u2030 055E  
                   u2111 05AE                     u2031 055D                     u2120 05B4  
                   u2040 0565                     u2200 0269                     u2121 05B3  
                   u2041 0564                     u2201 0268                     u2130 05C0  
                   u2050 056B                     u2210 0287                     u2131 05BF  
                   u2051 056A                     u2211 0286                     u2060 0577  
                   u2220 02BF                     u2140 021A                     u2061 0576  
                   u2221 02BE                     u2141 0219                     _LATA 010C  
                   u2070 0585                     u2310 0313                     u2150 0220  
                   _LATB 010D                     u2311 0312                     u2151 021F  
                   _LATC 010E                     u2080 0594                     u2400 037E  
                   u2160 0225                     u1600 0EB0                     u2081 0593  
                   u2401 037D                     u2305 0309                     u2161 0224  
                   u1601 0EAF                     u2090 059D                     u2410 0399  
                   u2330 0323                     u2250 02D1                     u2170 0243  
                   u1530 001F                     u1610 0DC3                     u2091 059C  
                   u2075 0581                     u2411 0398                     u2331 0322  
                   u2251 02D0                     u2235 02C0                     u2171 0242  
                   u1531 001E                     u1611 0DC2                     u2420 03AC  
                   u2340 0328                     u2180 0249                     u2500 061B  
                   u1700 0E1E                     u1620 0DD9                     u2421 03AB  
                   u2405 037A                     u2341 0327                     u2325 0315  
                   u2245 02C7                     u2181 0248                     u1605 0EAC  
                   u2501 061A                     u1701 0E1D                     u1710 03C4  
                   u2350 033C                     u2270 02EB                     u2190 024E  
                   u1550 002F                     u2430 05CC                     u1630 0DEC  
                   u1711 03C3                     u2415 0395                     u2351 033B  
                   u2271 02EA                     u2191 024D                     u1551 002E  
                   u2431 05CB                     u1631 0DEB                     u1800 0454  
                   u1720 03CA                     u2360 0343                     u2280 02FE  
                   u1560 0E3E                     u2600 0765                     u2440 05D2  
                   u1640 0DF3                     u1801 0453                     u1721 03C9  
                   u2361 0342                     u2281 02FD                     u2265 02D3  
                   u1561 0E3D                     u1545 0024                     u2601 0764  
                   u2441 05D1                     u1641 0DF2                     u1625 0DD5  
                   u1810 045E                     u1730 03CF                     u2370 0349  
                   u2290 0306                     u1570 0E5A                     u2610 0779  
                   u2530 0711                     u2450 05D7                     _T2PR 0494  
                   u1811 045C                     u1731 03CE                     u2371 0348  
                   u2291 0305                     u2275 02E7                     u1571 0E59  
                   u2611 0778                     u2515 0694                     u2451 05D6  
                   u1900 04AF                     u1820 045F                     u1740 03EB  
                   u2380 0355                     u1580 0E66                     u2620 0780  
                   u2540 0728                     u2460 05F4                     u1660 0E03  
                   u2700 0F93                     u1901 04AE                     u1805 0450  
                   u1741 03EA                     u2381 0354                     u1581 0E65  
                   u2621 077F                     u2525 06BF                     u2461 05F3  
                   u1661 0E02                     u2701 0F92                     u1910 04B9  
                   u1830 046F                     u1750 03F2                     u2390 0363  
                   u1590 0E82                     u2630 0786                     u2470 05FA  
                   u1670 0E0A                     u2710 0ECC                     u1911 04B8  
                   u1831 046E                     u1751 03F1                     u1591 0E81  
                   u2631 0785                     u2535 070D                     u2471 05F9  
                   u1671 0E09                     u1655 0DF5                     u2711 0ECB  
                   u1840 0479                     u1760 03F8                     u2640 0792  
                   u2480 05FF                     u2720 0EED                     u1841 0478  
                   u1761 03F7                     u2641 0791                     u2545 0724  
                   u2481 05FE                     u2721 0EEC                     u1930 04DD  
                   u1770 03FD                     u2650 07A0                     u2570 0750  
                   u2490 0616                     u1690 0E19                     u2810 00A3  
                   u2730 003A                     u1931 04DC                     u1771 03FC  
                   u2395 035F                     u2571 074F                     u2555 0733  
                   u2491 0615                     u1691 0E18                     u2811 00A2  
                   u2731 0039                     u1940 050C                     u1860 048D  
                   u1780 0416                     u2660 07BB                     u2820 00A9  
                   u2740 003E                     u1941 050B                     u1933 04D9  
                   u1925 04BC                     u1861 048C                     u1781 0415  
                   u2661 07BA                     u2565 0746                     u1685 0E0C  
                   u2821 00A8                     u2805 0099                     u2741 003D  
                   u1950 0525                     u1870 0491                     u1790 041A  
                   u2670 07D3                     u2590 0760                     u2830 00AD  
                   u2750 005E                     u1951 0524                     u1871 0490  
                   u1855 047C                     u1791 0419                     u2671 07D2  
                   u2655 079C                     u2591 075F                     u2831 00AC  
                   u2751 005D                     u1960 052A                     u1880 0496  
                   u2680 07ED                     u2840 00C1                     u1961 0529  
                   u1881 0495                     u2681 07EC                     u2665 07B7  
                   u2585 0752                     u1890 04AB                     u2690 0F72  
                   u2850 00D0                     u2770 007B                     u1891 04AA  
                   u2675 07CF                     u2691 0F71                     u2851 00CF  
                   u2771 007A                     u2907 01A8                     u1980 053E  
                   u2860 00D4                     u1981 053D                     u2861 00D3  
                   u2845 00BD                     u2765 006F                     u2917 01FE  
                   u1990 0543                     u2790 0095                     u2870 01C0  
                   u1991 0542                     u1975 0534                     u2791 0094  
                   u2871 01BF                     u2880 020D                     u2785 0089  
                   u2881 020C                     u2875 01BC                     u2897 014C  
                   _WPUA 020C                     _WPUB 020D                     _WPUC 020E  
                   _main 00DE                     btemp 007E                     start 0002  
        ___fldiv@new_exp 0025          __end_of_Servo12 0F5A            ___fltol@sign1 0078  
        __end_of___fladd 05C2                    ?_main 0070          __end_of___fldiv 03BA  
        __end_of___flmul 07FD          __end_of___fltol 0E2A                    _T2CON 0495  
                  _TRISA 008C                    _TRISB 008D                    _TRISC 008E  
                  main@i 0065                    status 0003                    wtemp0 007E  
        __initialization 07FD             __end_of_main 0210                   ??_main 0063  
                 _CCPR1H 0292                   _CCPR1L 0291                   _ANSELA 018C  
                 _ANSELB 018D                   _ANSELC 018E                   _RA4PPS 0E94  
                 _RC0PPS 0EA0                   _RA5PPS 0E95                   _RC1PPS 0EA1  
                 _RA6PPS 0E96                   _RC2PPS 0EA2                   _RA7PPS 0E97  
                 _RC3PPS 0EA3                   _RC4PPS 0EA4                   _RC5PPS 0EA5  
             Servo5@duty 005F                   _OSCCON 009B         __end_of___xxtofl 00DE  
              ??_Servo12 007E                   _Servo5 0F5A             _CCPTMRS1bits 029E  
           _CCPTMRS2bits 029F                   ___flge 0E2A                ??___fladd 004F  
              ??___fldiv 0078                ??___flmul 0035                ??___fltol 0074  
             ___flge@ff1 0070               ___flge@ff2 0074             ___xxtofl@arg 007A  
           ___xxtofl@exp 0079             ___xxtofl@val 0070  __end_of__initialization 07FD  
             ___fltol@f1 0070           __pcstackCOMMON 0070           _OPTION_REGbits 0097  
      __end_of__Umul8_16 0034             _T2CLKCONbits 0497                  ?_Servo5 005B  
             __pmaintext 00DE                  ?___flge 0070              Servo12@duty 005F  
                _CCP1CON 0293                ?___xxtofl 0070              Servo5@angle 005B  
                _PWM3DCH 0615                  _PWM3DCL 0614                  _PWM4DCH 0618  
                _PWM4DCL 0617                  _PWM5DCH 0D94                  _PWM5DCL 0D93  
                _PWM6DCH 0DA4                  _PWM3CON 0616                  _PWM6DCL 0DA3  
                _PWM4CON 0619                  _PWM5CON 0D9B                  _PWM9DCH 061B  
                _PWM6CON 0DAB                  _PWM9DCL 061A                  _PWM5OFH 0D98  
                _PWM5OFL 0D97                  _PWM5PHH 0D92                  _PWM6OFH 0DA8  
                _PWM9CON 061C                  _PWM5PHL 0D91                  _PWM6OFL 0DA7  
                _PWM6PHH 0DA2                  _PWM6PHL 0DA1                  _PWM5PRH 0D96  
                _PWM5PRL 0D95                  _PWM6PRH 0DA6                  _PWM6PRL 0DA5  
                _Servo12 0EB4                  ___fladd 03BA                  ___fldiv 0210  
                ___flmul 05C2                  ___fltol 0DBA                  __ptext1 0034  
                __ptext2 0F5A                  __ptext3 0EB4                  __ptext4 0DBA  
                __ptext5 05C2                  __ptext6 0011                  __ptext7 0E2A  
                __ptext8 0210                  __ptext9 03BA               ??___xxtofl 0074  
   end_of_initialization 07FD                _PWM5LDCON 0D9F                _PWM6LDCON 0DAF  
              _PWM5OFCON 0DA0                _PWM6OFCON 0DB0                _PORTAbits 000C  
            ___fladd@grs 005A            ___xxtofl@sign 0078              ___fldiv@grs 0027  
            ___fldiv@rem 0020              ___flmul@grs 003B           __end_of_Servo5 1000  
         __end_of___flge 0EB4      start_initialization 07FD                 ??_Servo5 007E  
               ??___flge 0078            _PWM5LDCONbits 0D9F                __Umul8_16 0011  
          _PWM6LDCONbits 0DAF                ___fladd@a 004B                ___fladd@b 0047  
              ___fldiv@a 0070                ___fldiv@b 0074                ___flmul@a 0031  
              ___flmul@b 002D                ___latbits 0003            __pcstackBANK0 0020  
               ?_Servo12 005B                 ?___fladd 0047                 ?___fldiv 0070  
               ?___flmul 002D                 ?___fltol 0070               ?__Umul8_16 0070  
           Servo12@angle 005B                 _LATAbits 010C                 _LATCbits 010E  
               _PWM5TMRH 0D9A                 _PWM5TMRL 0D99                 _PWM6TMRH 0DAA  
               _PWM6TMRL 0DA9                main@i_379 0067              ??__Umul8_16 0072  
               ___xxtofl 0034               _PWM5CLKCON 0D9E               _PWM6CLKCON 0DAE  
 __Umul8_16@multiplicand 0070            ___fladd@signs 0057             ___fladd@aexp 0058  
           ___fladd@bexp 0059     __Umul8_16@multiplier 0078        __Umul8_16@product 0074  
