

Microchip MPLAB XC8 Assembler V2.40 build 20220703182018 
                                                                                               Tue Aug 15 17:12:43 2023

Microchip MPLAB XC8 C Compiler v2.40 (Free license) build 20220703182018 Og1 
     1                           	processor	16F1778
     2                           	pagewidth 120
     3                           	opt	flic
     4                           	psect	cinit,global,class=CODE,merge=1,delta=2
     5                           	psect	cstackCOMMON,global,class=COMMON,space=1,delta=1,noexec
     6                           	psect	cstackBANK0,global,class=BANK0,space=1,delta=1,noexec
     7                           	psect	maintext,global,class=CODE,merge=1,split=1,delta=2
     8                           	psect	text1,local,class=CODE,merge=1,delta=2,group=1
     9                           	psect	text2,local,class=CODE,merge=1,delta=2
    10                           	psect	text3,local,class=CODE,merge=1,delta=2,group=1
    11                           	psect	text4,local,class=CODE,merge=1,delta=2,group=1
    12                           	psect	text5,local,class=CODE,merge=1,delta=2,group=1
    13                           	psect	text6,local,class=CODE,merge=1,delta=2,group=1
    14                           	psect	text7,local,class=CODE,merge=1,delta=2,group=1
    15                           	psect	text8,local,class=CODE,merge=1,delta=2,group=1
    16                           	psect	idloc,global,abs,ovrld,class=IDLOC,space=5,delta=2,noexec
    17                           	psect	config,global,abs,ovrld,class=CONFIG,space=4,delta=2,noexec
    18                           	dabs	1,0x7E,2
    19     0000                     
    20                           ; Version 2.40
    21                           ; Generated 17/11/2021 GMT
    22                           ; 
    23                           ; Copyright © 2021, Microchip Technology Inc. and its subsidiaries ("Microchip")
    24                           ; All rights reserved.
    25                           ; 
    26                           ; This software is developed by Microchip Technology Inc. and its subsidiaries ("Microch
      +                          ip").
    27                           ; 
    28                           ; Redistribution and use in source and binary forms, with or without modification, are
    29                           ; permitted provided that the following conditions are met:
    30                           ; 
    31                           ;     1. Redistributions of source code must retain the above copyright notice, this lis
      +                          t of
    32                           ;        conditions and the following disclaimer.
    33                           ; 
    34                           ;     2. Redistributions in binary form must reproduce the above copyright notice, this 
      +                          list
    35                           ;        of conditions and the following disclaimer in the documentation and/or other
    36                           ;        materials provided with the distribution. Publication is not required when
    37                           ;        this file is used in an embedded application.
    38                           ; 
    39                           ;     3. Microchip's name may not be used to endorse or promote products derived from th
      +                          is
    40                           ;        software without specific prior written permission.
    41                           ; 
    42                           ; THIS SOFTWARE IS PROVIDED BY MICROCHIP "AS IS" AND ANY EXPRESS OR IMPLIED WARRANTIES,
    43                           ; INCLUDING, BUT NOT LIMITED TO, THE IMPLIED WARRANTIES OF MERCHANTABILITY AND FITNESS F
      +                          OR
    44                           ; PURPOSE ARE DISCLAIMED.  IN NO EVENT SHALL MICROCHIP BE LIABLE FOR ANY DIRECT, INDIREC
      +                          T,
    45                           ; INCIDENTAL, SPECIAL, EXEMPLARY, OR CONSEQUENTIAL DAMAGES (INCLUDING BUT NOT LIMITED TO
    46                           ; PROCUREMENT OF SUBSTITUTE GOODS OR SERVICES; LOSS OF USE, DATA OR PROFITS; OR BUSINESS
    47                           ; INTERRUPTION) HOWSOEVER CAUSED AND ON ANY THEORY OF LIABILITY, WHETHER IN CONTRACT, ST
      +                          RICT
    48                           ; LIABILITY, OR TORT (INCLUDING NEGLIGENCE OR OTHERWISE) ARISING IN ANY WAY OUT OF THE U
      +                          SE OF
    49                           ; THIS SOFTWARE, EVEN IF ADVISED OF THE POSSIBILITY OF SUCH DAMAGE.
    50                           ; 
    51                           ; 
    52                           ; Code-generator required, PIC16F1778 Definitions
    53                           ; 
    54                           ; SFR Addresses
    55     0000                     	;# 
    56     0001                     	;# 
    57     0002                     	;# 
    58     0003                     	;# 
    59     0004                     	;# 
    60     0005                     	;# 
    61     0006                     	;# 
    62     0007                     	;# 
    63     0008                     	;# 
    64     0009                     	;# 
    65     000A                     	;# 
    66     000B                     	;# 
    67     000C                     	;# 
    68     000D                     	;# 
    69     000E                     	;# 
    70     0010                     	;# 
    71     0011                     	;# 
    72     0012                     	;# 
    73     0013                     	;# 
    74     0014                     	;# 
    75     0015                     	;# 
    76     0016                     	;# 
    77     0017                     	;# 
    78     0018                     	;# 
    79     0018                     	;# 
    80     0019                     	;# 
    81     001A                     	;# 
    82     001B                     	;# 
    83     001C                     	;# 
    84     001C                     	;# 
    85     001D                     	;# 
    86     001E                     	;# 
    87     001F                     	;# 
    88     008C                     	;# 
    89     008D                     	;# 
    90     008E                     	;# 
    91     0090                     	;# 
    92     0091                     	;# 
    93     0092                     	;# 
    94     0093                     	;# 
    95     0094                     	;# 
    96     0095                     	;# 
    97     0096                     	;# 
    98     0097                     	;# 
    99     0098                     	;# 
   100     0099                     	;# 
   101     009A                     	;# 
   102     009B                     	;# 
   103     009C                     	;# 
   104     009D                     	;# 
   105     009E                     	;# 
   106     009F                     	;# 
   107     010C                     	;# 
   108     010D                     	;# 
   109     010E                     	;# 
   110     0111                     	;# 
   111     0112                     	;# 
   112     0113                     	;# 
   113     0114                     	;# 
   114     0115                     	;# 
   115     0116                     	;# 
   116     0117                     	;# 
   117     0118                     	;# 
   118     0119                     	;# 
   119     011A                     	;# 
   120     011B                     	;# 
   121     011C                     	;# 
   122     011D                     	;# 
   123     018C                     	;# 
   124     018D                     	;# 
   125     018E                     	;# 
   126     0191                     	;# 
   127     0191                     	;# 
   128     0192                     	;# 
   129     0193                     	;# 
   130     0193                     	;# 
   131     0194                     	;# 
   132     0195                     	;# 
   133     0196                     	;# 
   134     0197                     	;# 
   135     0199                     	;# 
   136     0199                     	;# 
   137     0199                     	;# 
   138     019A                     	;# 
   139     019A                     	;# 
   140     019A                     	;# 
   141     019B                     	;# 
   142     019B                     	;# 
   143     019B                     	;# 
   144     019B                     	;# 
   145     019B                     	;# 
   146     019C                     	;# 
   147     019C                     	;# 
   148     019C                     	;# 
   149     019D                     	;# 
   150     019D                     	;# 
   151     019D                     	;# 
   152     019E                     	;# 
   153     019E                     	;# 
   154     019E                     	;# 
   155     019F                     	;# 
   156     019F                     	;# 
   157     019F                     	;# 
   158     019F                     	;# 
   159     019F                     	;# 
   160     020C                     	;# 
   161     020D                     	;# 
   162     020E                     	;# 
   163     0210                     	;# 
   164     0211                     	;# 
   165     0211                     	;# 
   166     0212                     	;# 
   167     0212                     	;# 
   168     0213                     	;# 
   169     0213                     	;# 
   170     0214                     	;# 
   171     0214                     	;# 
   172     0215                     	;# 
   173     0215                     	;# 
   174     0215                     	;# 
   175     0215                     	;# 
   176     0216                     	;# 
   177     0216                     	;# 
   178     0217                     	;# 
   179     0217                     	;# 
   180     021B                     	;# 
   181     021C                     	;# 
   182     021D                     	;# 
   183     021E                     	;# 
   184     021F                     	;# 
   185     028C                     	;# 
   186     028D                     	;# 
   187     028E                     	;# 
   188     0291                     	;# 
   189     0291                     	;# 
   190     0292                     	;# 
   191     0293                     	;# 
   192     0294                     	;# 
   193     0295                     	;# 
   194     0295                     	;# 
   195     0296                     	;# 
   196     0297                     	;# 
   197     0298                     	;# 
   198     0299                     	;# 
   199     0299                     	;# 
   200     029A                     	;# 
   201     029B                     	;# 
   202     029C                     	;# 
   203     029E                     	;# 
   204     029F                     	;# 
   205     030C                     	;# 
   206     030D                     	;# 
   207     030E                     	;# 
   208     0315                     	;# 
   209     0316                     	;# 
   210     0317                     	;# 
   211     0318                     	;# 
   212     0319                     	;# 
   213     031B                     	;# 
   214     031C                     	;# 
   215     031D                     	;# 
   216     031E                     	;# 
   217     031F                     	;# 
   218     038C                     	;# 
   219     038D                     	;# 
   220     038E                     	;# 
   221     0390                     	;# 
   222     0391                     	;# 
   223     0392                     	;# 
   224     0393                     	;# 
   225     0394                     	;# 
   226     0395                     	;# 
   227     0396                     	;# 
   228     0397                     	;# 
   229     0398                     	;# 
   230     0399                     	;# 
   231     039D                     	;# 
   232     039E                     	;# 
   233     039F                     	;# 
   234     040D                     	;# 
   235     040F                     	;# 
   236     040F                     	;# 
   237     0410                     	;# 
   238     0411                     	;# 
   239     0412                     	;# 
   240     0413                     	;# 
   241     0413                     	;# 
   242     0414                     	;# 
   243     0414                     	;# 
   244     0415                     	;# 
   245     0416                     	;# 
   246     0417                     	;# 
   247     0418                     	;# 
   248     041A                     	;# 
   249     041A                     	;# 
   250     041B                     	;# 
   251     041B                     	;# 
   252     041C                     	;# 
   253     041D                     	;# 
   254     041E                     	;# 
   255     041F                     	;# 
   256     048E                     	;# 
   257     048E                     	;# 
   258     048F                     	;# 
   259     0490                     	;# 
   260     0491                     	;# 
   261     0492                     	;# 
   262     0493                     	;# 
   263     0493                     	;# 
   264     0494                     	;# 
   265     0494                     	;# 
   266     0495                     	;# 
   267     0496                     	;# 
   268     0497                     	;# 
   269     0498                     	;# 
   270     049A                     	;# 
   271     049A                     	;# 
   272     049B                     	;# 
   273     049B                     	;# 
   274     049C                     	;# 
   275     049D                     	;# 
   276     049E                     	;# 
   277     049F                     	;# 
   278     050F                     	;# 
   279     0510                     	;# 
   280     0511                     	;# 
   281     0512                     	;# 
   282     0513                     	;# 
   283     0514                     	;# 
   284     0515                     	;# 
   285     0516                     	;# 
   286     0517                     	;# 
   287     0518                     	;# 
   288     0519                     	;# 
   289     051A                     	;# 
   290     058D                     	;# 
   291     058E                     	;# 
   292     058F                     	;# 
   293     058F                     	;# 
   294     058F                     	;# 
   295     0590                     	;# 
   296     0590                     	;# 
   297     0591                     	;# 
   298     0592                     	;# 
   299     0592                     	;# 
   300     0592                     	;# 
   301     0593                     	;# 
   302     0593                     	;# 
   303     0594                     	;# 
   304     0595                     	;# 
   305     0595                     	;# 
   306     0596                     	;# 
   307     0597                     	;# 
   308     0597                     	;# 
   309     0598                     	;# 
   310     0599                     	;# 
   311     0599                     	;# 
   312     0599                     	;# 
   313     059A                     	;# 
   314     059A                     	;# 
   315     059E                     	;# 
   316     059F                     	;# 
   317     059F                     	;# 
   318     0614                     	;# 
   319     0614                     	;# 
   320     0615                     	;# 
   321     0616                     	;# 
   322     0617                     	;# 
   323     0617                     	;# 
   324     0618                     	;# 
   325     0619                     	;# 
   326     061A                     	;# 
   327     061A                     	;# 
   328     061B                     	;# 
   329     061C                     	;# 
   330     068D                     	;# 
   331     068E                     	;# 
   332     068F                     	;# 
   333     0690                     	;# 
   334     0691                     	;# 
   335     0692                     	;# 
   336     0693                     	;# 
   337     0694                     	;# 
   338     0695                     	;# 
   339     0696                     	;# 
   340     0697                     	;# 
   341     0698                     	;# 
   342     0699                     	;# 
   343     069A                     	;# 
   344     069B                     	;# 
   345     069C                     	;# 
   346     069D                     	;# 
   347     069E                     	;# 
   348     069F                     	;# 
   349     070D                     	;# 
   350     070E                     	;# 
   351     070F                     	;# 
   352     0710                     	;# 
   353     0711                     	;# 
   354     0712                     	;# 
   355     0713                     	;# 
   356     0714                     	;# 
   357     0715                     	;# 
   358     0716                     	;# 
   359     0717                     	;# 
   360     0718                     	;# 
   361     0719                     	;# 
   362     071A                     	;# 
   363     071B                     	;# 
   364     071C                     	;# 
   365     071D                     	;# 
   366     071E                     	;# 
   367     071F                     	;# 
   368     078E                     	;# 
   369     078F                     	;# 
   370     0790                     	;# 
   371     0791                     	;# 
   372     0792                     	;# 
   373     0793                     	;# 
   374     0794                     	;# 
   375     0795                     	;# 
   376     0796                     	;# 
   377     0797                     	;# 
   378     0798                     	;# 
   379     0799                     	;# 
   380     079A                     	;# 
   381     079B                     	;# 
   382     079C                     	;# 
   383     079D                     	;# 
   384     079E                     	;# 
   385     079F                     	;# 
   386     080D                     	;# 
   387     080E                     	;# 
   388     080F                     	;# 
   389     0810                     	;# 
   390     0811                     	;# 
   391     0812                     	;# 
   392     0813                     	;# 
   393     0814                     	;# 
   394     0815                     	;# 
   395     0816                     	;# 
   396     0817                     	;# 
   397     0818                     	;# 
   398     0819                     	;# 
   399     081A                     	;# 
   400     081B                     	;# 
   401     081C                     	;# 
   402     081D                     	;# 
   403     081E                     	;# 
   404     081F                     	;# 
   405     090C                     	;# 
   406     090D                     	;# 
   407     090E                     	;# 
   408     090F                     	;# 
   409     0910                     	;# 
   410     0911                     	;# 
   411     0912                     	;# 
   412     0913                     	;# 
   413     0914                     	;# 
   414     0915                     	;# 
   415     0916                     	;# 
   416     0917                     	;# 
   417     0D8E                     	;# 
   418     0D8F                     	;# 
   419     0D90                     	;# 
   420     0D91                     	;# 
   421     0D91                     	;# 
   422     0D92                     	;# 
   423     0D93                     	;# 
   424     0D93                     	;# 
   425     0D94                     	;# 
   426     0D95                     	;# 
   427     0D95                     	;# 
   428     0D96                     	;# 
   429     0D97                     	;# 
   430     0D97                     	;# 
   431     0D98                     	;# 
   432     0D99                     	;# 
   433     0D99                     	;# 
   434     0D9A                     	;# 
   435     0D9B                     	;# 
   436     0D9C                     	;# 
   437     0D9C                     	;# 
   438     0D9D                     	;# 
   439     0D9D                     	;# 
   440     0D9E                     	;# 
   441     0D9F                     	;# 
   442     0DA0                     	;# 
   443     0DA1                     	;# 
   444     0DA1                     	;# 
   445     0DA2                     	;# 
   446     0DA3                     	;# 
   447     0DA3                     	;# 
   448     0DA4                     	;# 
   449     0DA5                     	;# 
   450     0DA5                     	;# 
   451     0DA6                     	;# 
   452     0DA7                     	;# 
   453     0DA7                     	;# 
   454     0DA8                     	;# 
   455     0DA9                     	;# 
   456     0DA9                     	;# 
   457     0DAA                     	;# 
   458     0DAB                     	;# 
   459     0DAC                     	;# 
   460     0DAC                     	;# 
   461     0DAD                     	;# 
   462     0DAD                     	;# 
   463     0DAE                     	;# 
   464     0DAF                     	;# 
   465     0DB0                     	;# 
   466     0DB1                     	;# 
   467     0DB1                     	;# 
   468     0DB2                     	;# 
   469     0DB3                     	;# 
   470     0DB3                     	;# 
   471     0DB4                     	;# 
   472     0DB5                     	;# 
   473     0DB5                     	;# 
   474     0DB6                     	;# 
   475     0DB7                     	;# 
   476     0DB7                     	;# 
   477     0DB8                     	;# 
   478     0DB9                     	;# 
   479     0DB9                     	;# 
   480     0DBA                     	;# 
   481     0DBB                     	;# 
   482     0DBC                     	;# 
   483     0DBC                     	;# 
   484     0DBD                     	;# 
   485     0DBD                     	;# 
   486     0DBE                     	;# 
   487     0DBF                     	;# 
   488     0DC0                     	;# 
   489     0E0C                     	;# 
   490     0E0D                     	;# 
   491     0E0E                     	;# 
   492     0E0F                     	;# 
   493     0E10                     	;# 
   494     0E11                     	;# 
   495     0E12                     	;# 
   496     0E13                     	;# 
   497     0E14                     	;# 
   498     0E15                     	;# 
   499     0E15                     	;# 
   500     0E15                     	;# 
   501     0E16                     	;# 
   502     0E16                     	;# 
   503     0E16                     	;# 
   504     0E17                     	;# 
   505     0E17                     	;# 
   506     0E17                     	;# 
   507     0E18                     	;# 
   508     0E18                     	;# 
   509     0E18                     	;# 
   510     0E19                     	;# 
   511     0E1A                     	;# 
   512     0E1B                     	;# 
   513     0E1D                     	;# 
   514     0E1E                     	;# 
   515     0E1F                     	;# 
   516     0E21                     	;# 
   517     0E22                     	;# 
   518     0E23                     	;# 
   519     0E24                     	;# 
   520     0E25                     	;# 
   521     0E26                     	;# 
   522     0E27                     	;# 
   523     0E28                     	;# 
   524     0E29                     	;# 
   525     0E2D                     	;# 
   526     0E2E                     	;# 
   527     0E2F                     	;# 
   528     0E30                     	;# 
   529     0E31                     	;# 
   530     0E32                     	;# 
   531     0E35                     	;# 
   532     0E36                     	;# 
   533     0E37                     	;# 
   534     0E38                     	;# 
   535     0E39                     	;# 
   536     0E3A                     	;# 
   537     0E3B                     	;# 
   538     0E3C                     	;# 
   539     0E3D                     	;# 
   540     0E3E                     	;# 
   541     0E90                     	;# 
   542     0E91                     	;# 
   543     0E92                     	;# 
   544     0E93                     	;# 
   545     0E94                     	;# 
   546     0E95                     	;# 
   547     0E96                     	;# 
   548     0E97                     	;# 
   549     0E98                     	;# 
   550     0E99                     	;# 
   551     0E9A                     	;# 
   552     0E9B                     	;# 
   553     0E9C                     	;# 
   554     0E9D                     	;# 
   555     0E9E                     	;# 
   556     0E9F                     	;# 
   557     0EA0                     	;# 
   558     0EA1                     	;# 
   559     0EA2                     	;# 
   560     0EA3                     	;# 
   561     0EA4                     	;# 
   562     0EA5                     	;# 
   563     0EA6                     	;# 
   564     0EA7                     	;# 
   565     0F0F                     	;# 
   566     0F10                     	;# 
   567     0F11                     	;# 
   568     0F12                     	;# 
   569     0F13                     	;# 
   570     0F14                     	;# 
   571     0F15                     	;# 
   572     0F16                     	;# 
   573     0F17                     	;# 
   574     0F18                     	;# 
   575     0F19                     	;# 
   576     0F1A                     	;# 
   577     0F1B                     	;# 
   578     0F1C                     	;# 
   579     0F1D                     	;# 
   580     0F1E                     	;# 
   581     0F1F                     	;# 
   582     0F20                     	;# 
   583     0F21                     	;# 
   584     0F22                     	;# 
   585     0F23                     	;# 
   586     0F24                     	;# 
   587     0F25                     	;# 
   588     0F26                     	;# 
   589     0F27                     	;# 
   590     0F28                     	;# 
   591     0F29                     	;# 
   592     0F2A                     	;# 
   593     0F2B                     	;# 
   594     0F2C                     	;# 
   595     0F2D                     	;# 
   596     0F2E                     	;# 
   597     0F2F                     	;# 
   598     0F30                     	;# 
   599     0F31                     	;# 
   600     0F32                     	;# 
   601     0F33                     	;# 
   602     0F34                     	;# 
   603     0F35                     	;# 
   604     0F36                     	;# 
   605     0F37                     	;# 
   606     0FE4                     	;# 
   607     0FE5                     	;# 
   608     0FE6                     	;# 
   609     0FE7                     	;# 
   610     0FE8                     	;# 
   611     0FE9                     	;# 
   612     0FEA                     	;# 
   613     0FEB                     	;# 
   614     0FED                     	;# 
   615     0FEE                     	;# 
   616     0FEF                     	;# 
   617     000C                     _PORTAbits	set	12
   618     0097                     _OPTION_REGbits	set	151
   619     008E                     _TRISC	set	142
   620     008D                     _TRISB	set	141
   621     008C                     _TRISA	set	140
   622     009B                     _OSCCON	set	155
   623     010E                     _LATCbits	set	270
   624     010C                     _LATAbits	set	268
   625     010E                     _LATC	set	270
   626     010D                     _LATB	set	269
   627     010C                     _LATA	set	268
   628     018E                     _ANSELC	set	398
   629     018D                     _ANSELB	set	397
   630     018C                     _ANSELA	set	396
   631     020E                     _WPUC	set	526
   632     020D                     _WPUB	set	525
   633     020C                     _WPUA	set	524
   634     0291                     _CCPR1L	set	657
   635     0292                     _CCPR1H	set	658
   636     029E                     _CCPTMRS1bits	set	670
   637     0293                     _CCP1CON	set	659
   638     029F                     _CCPTMRS2bits	set	671
   639     0494                     _T2PR	set	1172
   640     0495                     _T2CON	set	1173
   641     0497                     _T2CLKCONbits	set	1175
   642     061A                     _PWM9DCL	set	1562
   643     061B                     _PWM9DCH	set	1563
   644     061C                     _PWM9CON	set	1564
   645     0617                     _PWM4DCL	set	1559
   646     0618                     _PWM4DCH	set	1560
   647     0619                     _PWM4CON	set	1561
   648     0614                     _PWM3DCL	set	1556
   649     0615                     _PWM3DCH	set	1557
   650     0616                     _PWM3CON	set	1558
   651     0D9F                     _PWM5LDCONbits	set	3487
   652     0D99                     _PWM5TMRL	set	3481
   653     0D9A                     _PWM5TMRH	set	3482
   654     0D97                     _PWM5OFL	set	3479
   655     0D98                     _PWM5OFH	set	3480
   656     0D95                     _PWM5PRL	set	3477
   657     0D96                     _PWM5PRH	set	3478
   658     0D93                     _PWM5DCL	set	3475
   659     0D94                     _PWM5DCH	set	3476
   660     0D91                     _PWM5PHL	set	3473
   661     0D92                     _PWM5PHH	set	3474
   662     0DA0                     _PWM5OFCON	set	3488
   663     0D9F                     _PWM5LDCON	set	3487
   664     0D9E                     _PWM5CLKCON	set	3486
   665     0D9B                     _PWM5CON	set	3483
   666     0EA2                     _RC2PPS	set	3746
   667     0EA0                     _RC0PPS	set	3744
   668     0E96                     _RA6PPS	set	3734
   669     0E94                     _RA4PPS	set	3732
   670     0EA5                     _RC5PPS	set	3749
   671     0EA3                     _RC3PPS	set	3747
   672     0EA1                     _RC1PPS	set	3745
   673     0E97                     _RA7PPS	set	3735
   674     0E95                     _RA5PPS	set	3733
   675                           
   676                           	psect	cinit
   677     07FD                     start_initialization:	
   678                           ; #config settings
   679                           
   680     07FD                     __initialization:
   681     07FD                     end_of_initialization:	
   682                           ;End of C runtime variable initialization code
   683                           
   684     07FD                     __end_of__initialization:
   685     07FD  0020               	movlb	0
   686     07FE  3181  2937         	ljmp	_main	;jump to C main() function
   687                           
   688                           	psect	cstackCOMMON
   689     0070                     __pcstackCOMMON:
   690     0070                     ?___flge:
   691     0070                     ?_main:	
   692                           ; 1 bit 
   693                           
   694     0070                     ?__Umul8_16:	
   695                           ; 1 bytes @ 0x0
   696                           
   697     0070                     ?___fltol:	
   698                           ; 2 bytes @ 0x0
   699                           
   700     0070                     ?___fldiv:	
   701                           ; 4 bytes @ 0x0
   702                           
   703     0070                     ?___xxtofl:	
   704                           ; 4 bytes @ 0x0
   705                           
   706     0070                     __Umul8_16@multiplicand:	
   707                           ; 4 bytes @ 0x0
   708                           
   709     0070                     ___flge@ff1:	
   710                           ; 1 bytes @ 0x0
   711                           
   712     0070                     ___fltol@f1:	
   713                           ; 4 bytes @ 0x0
   714                           
   715     0070                     ___fldiv@a:	
   716                           ; 4 bytes @ 0x0
   717                           
   718     0070                     ___xxtofl@val:	
   719                           ; 4 bytes @ 0x0
   720                           
   721                           
   722                           ; 4 bytes @ 0x0
   723     0070                     	ds	2
   724     0072                     ??__Umul8_16:
   725                           
   726                           ; 1 bytes @ 0x2
   727     0072                     	ds	2
   728     0074                     ??___fltol:
   729     0074                     ??___xxtofl:	
   730                           ; 1 bytes @ 0x4
   731                           
   732     0074                     __Umul8_16@product:	
   733                           ; 1 bytes @ 0x4
   734                           
   735     0074                     ___flge@ff2:	
   736                           ; 2 bytes @ 0x4
   737                           
   738     0074                     ___fldiv@b:	
   739                           ; 4 bytes @ 0x4
   740                           
   741                           
   742                           ; 4 bytes @ 0x4
   743     0074                     	ds	2
   744     0076                     __Umul8_16@word_mpld:
   745                           
   746                           ; 2 bytes @ 0x6
   747     0076                     	ds	2
   748     0078                     ??___flge:
   749     0078                     ??___fldiv:	
   750                           ; 1 bytes @ 0x8
   751                           
   752     0078                     ___fltol@sign1:	
   753                           ; 1 bytes @ 0x8
   754                           
   755     0078                     __Umul8_16@multiplier:	
   756                           ; 1 bytes @ 0x8
   757                           
   758     0078                     ___xxtofl@sign:	
   759                           ; 1 bytes @ 0x8
   760                           
   761                           
   762                           ; 1 bytes @ 0x8
   763     0078                     	ds	1
   764     0079                     ___fltol@exp1:
   765     0079                     ___xxtofl@exp:	
   766                           ; 1 bytes @ 0x9
   767                           
   768                           
   769                           ; 1 bytes @ 0x9
   770     0079                     	ds	1
   771     007A                     ___xxtofl@arg:
   772                           
   773                           ; 4 bytes @ 0xA
   774     007A                     	ds	4
   775     007E                     ??_Servo5:
   776                           
   777                           	psect	cstackBANK0
   778     0020                     __pcstackBANK0:	
   779                           ; 1 bytes @ 0xE
   780                           
   781     0020                     ___fldiv@rem:
   782                           
   783                           ; 4 bytes @ 0x0
   784     0020                     	ds	4
   785     0024                     ___fldiv@sign:
   786                           
   787                           ; 1 bytes @ 0x4
   788     0024                     	ds	1
   789     0025                     ___fldiv@new_exp:
   790                           
   791                           ; 2 bytes @ 0x5
   792     0025                     	ds	2
   793     0027                     ___fldiv@grs:
   794                           
   795                           ; 4 bytes @ 0x7
   796     0027                     	ds	4
   797     002B                     ___fldiv@bexp:
   798                           
   799                           ; 1 bytes @ 0xB
   800     002B                     	ds	1
   801     002C                     ___fldiv@aexp:
   802                           
   803                           ; 1 bytes @ 0xC
   804     002C                     	ds	1
   805     002D                     ?___flmul:
   806     002D                     ___flmul@b:	
   807                           ; 4 bytes @ 0xD
   808                           
   809                           
   810                           ; 4 bytes @ 0xD
   811     002D                     	ds	4
   812     0031                     ___flmul@a:
   813                           
   814                           ; 4 bytes @ 0x11
   815     0031                     	ds	4
   816     0035                     ??___flmul:
   817                           
   818                           ; 1 bytes @ 0x15
   819     0035                     	ds	5
   820     003A                     ___flmul@sign:
   821                           
   822                           ; 1 bytes @ 0x1A
   823     003A                     	ds	1
   824     003B                     ___flmul@grs:
   825                           
   826                           ; 4 bytes @ 0x1B
   827     003B                     	ds	4
   828     003F                     ___flmul@aexp:
   829                           
   830                           ; 1 bytes @ 0x1F
   831     003F                     	ds	1
   832     0040                     ___flmul@bexp:
   833                           
   834                           ; 1 bytes @ 0x20
   835     0040                     	ds	1
   836     0041                     ___flmul@prod:
   837                           
   838                           ; 4 bytes @ 0x21
   839     0041                     	ds	4
   840     0045                     ___flmul@temp:
   841                           
   842                           ; 2 bytes @ 0x25
   843     0045                     	ds	2
   844     0047                     ?___fladd:
   845     0047                     ___fladd@b:	
   846                           ; 4 bytes @ 0x27
   847                           
   848                           
   849                           ; 4 bytes @ 0x27
   850     0047                     	ds	4
   851     004B                     ___fladd@a:
   852                           
   853                           ; 4 bytes @ 0x2B
   854     004B                     	ds	4
   855     004F                     ??___fladd:
   856                           
   857                           ; 1 bytes @ 0x2F
   858     004F                     	ds	8
   859     0057                     ___fladd@signs:
   860                           
   861                           ; 1 bytes @ 0x37
   862     0057                     	ds	1
   863     0058                     ___fladd@aexp:
   864                           
   865                           ; 1 bytes @ 0x38
   866     0058                     	ds	1
   867     0059                     ___fladd@bexp:
   868                           
   869                           ; 1 bytes @ 0x39
   870     0059                     	ds	1
   871     005A                     ___fladd@grs:
   872                           
   873                           ; 1 bytes @ 0x3A
   874     005A                     	ds	1
   875     005B                     ?_Servo5:
   876     005B                     Servo5@angle:	
   877                           ; 1 bytes @ 0x3B
   878                           
   879                           
   880                           ; 4 bytes @ 0x3B
   881     005B                     	ds	4
   882     005F                     Servo5@duty:
   883                           
   884                           ; 4 bytes @ 0x3F
   885     005F                     	ds	4
   886     0063                     ??_main:
   887                           
   888                           ; 1 bytes @ 0x43
   889     0063                     	ds	2
   890     0065                     main@i:
   891                           
   892                           ; 2 bytes @ 0x45
   893     0065                     	ds	2
   894     0067                     main@i_321:
   895                           
   896                           ; 2 bytes @ 0x47
   897     0067                     	ds	2
   898                           
   899                           	psect	maintext
   900     0137                     __pmaintext:	
   901 ;;
   902 ;;Main: autosize = 0, tempsize = 2, incstack = 0, save=0
   903 ;;
   904 ;; *************** function _main *****************
   905 ;; Defined at:
   906 ;;		line 50 in file "main.c"
   907 ;; Parameters:    Size  Location     Type
   908 ;;		None
   909 ;; Auto vars:     Size  Location     Type
   910 ;;  i               2   71[BANK0 ] int 
   911 ;;  i               2   69[BANK0 ] int 
   912 ;; Return value:  Size  Location     Type
   913 ;;                  1    wreg      void 
   914 ;; Registers used:
   915 ;;		wreg, status,2, status,0, pclath, cstack
   916 ;; Tracked objects:
   917 ;;		On entry : B1F/0
   918 ;;		On exit  : 0/0
   919 ;;		Unchanged: 0/0
   920 ;; Data sizes:     COMMON   BANK0   BANK1   BANK2   BANK3   BANK4   BANK5   BANK6   BANK7   BANK8   BANK9  BANK10  BANK1
      +1  BANK12  BANK13  BANK14  BANK15  BANK16  BANK17  BANK18  BANK19  BANK20  BANK21  BANK22  BANK23  BANK24  BANK25
   921 ;;      Params:         0       0       0       0       0       0       0       0       0       0       0       0       
      +0       0       0       0       0       0       0       0       0       0       0       0       0       0       0
   922 ;;      Locals:         0       4       0       0       0       0       0       0       0       0       0       0       
      +0       0       0       0       0       0       0       0       0       0       0       0       0       0       0
   923 ;;      Temps:          0       2       0       0       0       0       0       0       0       0       0       0       
      +0       0       0       0       0       0       0       0       0       0       0       0       0       0       0
   924 ;;      Totals:         0       6       0       0       0       0       0       0       0       0       0       0       
      +0       0       0       0       0       0       0       0       0       0       0       0       0       0       0
   925 ;;Total ram usage:        6 bytes
   926 ;; Hardware stack levels required when called: 3
   927 ;; This function calls:
   928 ;;		_Servo5
   929 ;;		___xxtofl
   930 ;; This function is called by:
   931 ;;		Startup code after reset
   932 ;; This function uses a non-reentrant model
   933 ;;
   934                           
   935     0137                     _main:	
   936                           ;psect for function _main
   937                           
   938     0137                     l2235:	
   939                           ;incstack = 0
   940                           ; Regs used in _main: [wreg+status,2+status,0+pclath+cstack]
   941                           
   942                           
   943                           ;main.c: 52:     OSCCON = 0b11110000;
   944     0137  30F0               	movlw	240
   945     0138  0021               	movlb	1	; select bank1
   946     0139  009B               	movwf	27	;volatile
   947     013A                     l2237:
   948                           
   949                           ;main.c: 55:     ANSELA = 0x00;
   950     013A  0023               	movlb	3	; select bank3
   951     013B  018C               	clrf	12	;volatile
   952     013C                     l2239:
   953                           
   954                           ;main.c: 56:     ANSELB = 0b00001111;
   955     013C  300F               	movlw	15
   956     013D  008D               	movwf	13	;volatile
   957                           
   958                           ;main.c: 57:     ANSELC = 0x00;
   959     013E  018E               	clrf	14	;volatile
   960     013F                     l2241:
   961                           
   962                           ;main.c: 58:     TRISA = 0b00001111;
   963     013F  300F               	movlw	15
   964     0140  0021               	movlb	1	; select bank1
   965     0141  008C               	movwf	12	;volatile
   966     0142                     l2243:
   967                           
   968                           ;main.c: 59:     TRISB = 0b00101111;
   969     0142  302F               	movlw	47
   970     0143  008D               	movwf	13	;volatile
   971                           
   972                           ;main.c: 60:     TRISC = 0x00;
   973     0144  018E               	clrf	14	;volatile
   974                           
   975                           ;main.c: 61:     LATA = 0x00;
   976     0145  0022               	movlb	2	; select bank2
   977     0146  018C               	clrf	12	;volatile
   978                           
   979                           ;main.c: 62:     LATB = 0x00;
   980     0147  018D               	clrf	13	;volatile
   981                           
   982                           ;main.c: 63:     LATC = 0x00;
   983     0148  018E               	clrf	14	;volatile
   984     0149                     l2245:
   985                           
   986                           ;main.c: 66:     OPTION_REGbits.nWPUEN = 0;
   987     0149  0021               	movlb	1	; select bank1
   988     014A  1397               	bcf	23,7	;volatile
   989     014B                     l2247:
   990                           
   991                           ;main.c: 67:     WPUA = 0b00001111;
   992     014B  300F               	movlw	15
   993     014C  0024               	movlb	4	; select bank4
   994     014D  008C               	movwf	12	;volatile
   995     014E                     l2249:
   996                           
   997                           ;main.c: 68:     WPUB = 0x00;
   998     014E  018D               	clrf	13	;volatile
   999     014F                     l2251:
  1000                           
  1001                           ;main.c: 69:     WPUC = 0x00;
  1002     014F  018E               	clrf	14	;volatile
  1003     0150                     l2253:
  1004                           
  1005                           ;main.c: 72:     T2CLKCONbits.CS = 0b0001;
  1006     0150  0029               	movlb	9	; select bank9
  1007     0151  0817               	movf	23,w	;volatile
  1008     0152  39F0               	andlw	-16
  1009     0153  3801               	iorlw	1
  1010     0154  0097               	movwf	23	;volatile
  1011     0155                     l2255:
  1012                           
  1013                           ;main.c: 73:     T2CON = 0b10000000;
  1014     0155  3080               	movlw	128
  1015     0156  0095               	movwf	21	;volatile
  1016     0157                     l2257:
  1017                           
  1018                           ;main.c: 74:     T2PR = 0xFF;
  1019     0157  30FF               	movlw	255
  1020     0158  0094               	movwf	20	;volatile
  1021     0159                     l2259:
  1022                           
  1023                           ;main.c: 77:     RA5PPS = 0b011001;
  1024     0159  3019               	movlw	25
  1025     015A  003D               	movlb	29	; select bank29
  1026     015B  0095               	movwf	21	;volatile
  1027     015C                     l2261:
  1028                           
  1029                           ;main.c: 78:     PWM3CON = 0b10000000;
  1030     015C  3080               	movlw	128
  1031     015D  002C               	movlb	12	; select bank12
  1032     015E  0096               	movwf	22	;volatile
  1033     015F                     l2263:
  1034                           
  1035                           ;main.c: 79:     CCPTMRS2bits.P3TSEL = 0b00;
  1036     015F  30FC               	movlw	-4
  1037     0160  0025               	movlb	5	; select bank5
  1038     0161  059F               	andwf	31,f	;volatile
  1039     0162                     l2265:
  1040                           
  1041                           ;main.c: 80:     PWM3DCH = 0x00;
  1042     0162  002C               	movlb	12	; select bank12
  1043     0163  0195               	clrf	21	;volatile
  1044     0164                     l2267:
  1045                           
  1046                           ;main.c: 81:     PWM3DCL = 0x00;
  1047     0164  0194               	clrf	20	;volatile
  1048     0165                     l2269:
  1049                           
  1050                           ;main.c: 84:     RA7PPS = 0b011010;
  1051     0165  301A               	movlw	26
  1052     0166  003D               	movlb	29	; select bank29
  1053     0167  0097               	movwf	23	;volatile
  1054     0168                     l2271:
  1055                           
  1056                           ;main.c: 85:     PWM4CON = 0b10000000;
  1057     0168  3080               	movlw	128
  1058     0169  002C               	movlb	12	; select bank12
  1059     016A  0099               	movwf	25	;volatile
  1060     016B                     l2273:
  1061                           
  1062                           ;main.c: 86:     CCPTMRS2bits.P4TSEL = 0b00;
  1063     016B  30F3               	movlw	-13
  1064     016C  0025               	movlb	5	; select bank5
  1065     016D  059F               	andwf	31,f	;volatile
  1066     016E                     l2275:
  1067                           
  1068                           ;main.c: 87:     PWM4DCH = 0x00;
  1069     016E  002C               	movlb	12	; select bank12
  1070     016F  0198               	clrf	24	;volatile
  1071     0170                     l2277:
  1072                           
  1073                           ;main.c: 88:     PWM4DCL = 0x00;
  1074     0170  0197               	clrf	23	;volatile
  1075     0171                     l2279:
  1076                           
  1077                           ;main.c: 91:     RC1PPS = 0b011011;
  1078     0171  301B               	movlw	27
  1079     0172  003D               	movlb	29	; select bank29
  1080     0173  00A1               	movwf	33	;volatile
  1081     0174                     l2281:
  1082                           
  1083                           ;main.c: 92:     PWM9CON = 0b10000000;
  1084     0174  3080               	movlw	128
  1085     0175  002C               	movlb	12	; select bank12
  1086     0176  009C               	movwf	28	;volatile
  1087     0177                     l2283:
  1088                           
  1089                           ;main.c: 93:     CCPTMRS2bits.P9TSEL = 0b00;
  1090     0177  30CF               	movlw	-49
  1091     0178  0025               	movlb	5	; select bank5
  1092     0179  059F               	andwf	31,f	;volatile
  1093     017A                     l2285:
  1094                           
  1095                           ;main.c: 94:     PWM9DCH = 0x00;
  1096     017A  002C               	movlb	12	; select bank12
  1097     017B  019B               	clrf	27	;volatile
  1098     017C                     l2287:
  1099                           
  1100                           ;main.c: 95:     PWM9DCL = 0x00;
  1101     017C  019A               	clrf	26	;volatile
  1102     017D                     l2289:
  1103                           
  1104                           ;main.c: 98:     RC3PPS = 0b010101;
  1105     017D  3015               	movlw	21
  1106     017E  003D               	movlb	29	; select bank29
  1107     017F  00A3               	movwf	35	;volatile
  1108     0180                     l2291:
  1109                           
  1110                           ;main.c: 99:     CCP1CON = 0b10011100;
  1111     0180  309C               	movlw	156
  1112     0181  0025               	movlb	5	; select bank5
  1113     0182  0093               	movwf	19	;volatile
  1114     0183                     l2293:
  1115                           
  1116                           ;main.c: 100:     CCPTMRS1bits.C1TSEL = 0b00;
  1117     0183  30FC               	movlw	-4
  1118     0184  059E               	andwf	30,f	;volatile
  1119     0185                     l2295:
  1120                           
  1121                           ;main.c: 101:     CCPR1H = 0x00;
  1122     0185  0192               	clrf	18	;volatile
  1123     0186                     l2297:
  1124                           
  1125                           ;main.c: 102:     CCPR1L = 0x00;
  1126     0186  0191               	clrf	17	;volatile
  1127     0187                     l2299:
  1128                           
  1129                           ;main.c: 105:     RC5PPS = 0b011101;
  1130     0187  301D               	movlw	29
  1131     0188  003D               	movlb	29	; select bank29
  1132     0189  00A5               	movwf	37	;volatile
  1133     018A                     l2301:
  1134                           
  1135                           ;main.c: 106:     PWM5CON = 0b10000000;
  1136     018A  3080               	movlw	128
  1137     018B  003B               	movlb	27	; select bank27
  1138     018C  009B               	movwf	27	;volatile
  1139     018D                     l2303:
  1140                           
  1141                           ;main.c: 107:     PWM5CLKCON = 0b01000000;
  1142     018D  3040               	movlw	64
  1143     018E  009E               	movwf	30	;volatile
  1144     018F                     l2305:
  1145                           
  1146                           ;main.c: 108:     PWM5LDCON = 0x00;
  1147     018F  019F               	clrf	31	;volatile
  1148     0190                     l2307:
  1149                           
  1150                           ;main.c: 109:     PWM5OFCON = 0x00;
  1151     0190  01A0               	clrf	32	;volatile
  1152     0191                     l2309:
  1153                           
  1154                           ;main.c: 110:     PWM5PHH = 0x00;
  1155     0191  0192               	clrf	18	;volatile
  1156     0192                     l2311:
  1157                           
  1158                           ;main.c: 111:     PWM5PHL = 0x00;
  1159     0192  0191               	clrf	17	;volatile
  1160     0193                     l2313:
  1161                           
  1162                           ;main.c: 112:     PWM5DCH = (2899 >> 8) & 0x00FF;
  1163     0193  300B               	movlw	11
  1164     0194  0094               	movwf	20	;volatile
  1165     0195                     l2315:
  1166                           
  1167                           ;main.c: 113:     PWM5DCL = 2899 & 0x00FF;
  1168     0195  3053               	movlw	83
  1169     0196  0093               	movwf	19	;volatile
  1170     0197                     l2317:
  1171                           
  1172                           ;main.c: 114:     PWM5PRH = (39999 >> 8) & 0x00FF;
  1173     0197  309C               	movlw	156
  1174     0198  0096               	movwf	22	;volatile
  1175     0199                     l2319:
  1176                           
  1177                           ;main.c: 115:     PWM5PRL = 39999 & 0x00FF;
  1178     0199  303F               	movlw	63
  1179     019A  0095               	movwf	21	;volatile
  1180     019B                     l2321:
  1181                           
  1182                           ;main.c: 116:     PWM5OFH = 0x00;
  1183     019B  0198               	clrf	24	;volatile
  1184     019C                     l2323:
  1185                           
  1186                           ;main.c: 117:     PWM5OFL = 0x00;
  1187     019C  0197               	clrf	23	;volatile
  1188     019D                     l2325:
  1189                           
  1190                           ;main.c: 118:     PWM5TMRH = 0x00;
  1191     019D  019A               	clrf	26	;volatile
  1192     019E                     l2327:
  1193                           
  1194                           ;main.c: 119:     PWM5TMRL = 0x00;
  1195     019E  0199               	clrf	25	;volatile
  1196     019F                     l2329:
  1197                           
  1198                           ;main.c: 147:         for(int i = 0; i <= 180; i++){
  1199     019F  0020               	movlb	0	; select bank0
  1200     01A0  01E5               	clrf	main@i
  1201     01A1  01E6               	clrf	main@i+1
  1202     01A2                     l2335:
  1203                           
  1204                           ;main.c: 148:             Servo5(i);
  1205     01A2  0020               	movlb	0	; select bank0
  1206     01A3  0865               	movf	main@i,w
  1207     01A4  00F0               	movwf	___xxtofl@val
  1208     01A5  0866               	movf	main@i+1,w
  1209     01A6  00F1               	movwf	___xxtofl@val+1
  1210     01A7  0D89               	rlf	9,f
  1211     01A8  3B89               	subwfb	9,f
  1212     01A9  0989               	comf	9,f
  1213     01AA  00F2               	movwf	___xxtofl@val+2
  1214     01AB  00F3               	movwf	___xxtofl@val+3
  1215     01AC  3001               	movlw	1
  1216     01AD  3180  208D  3181   	fcall	___xxtofl
  1217     01B0  0873               	movf	?___xxtofl+3,w
  1218     01B1  0020               	movlb	0	; select bank0
  1219     01B2  00DE               	movwf	Servo5@angle+3
  1220     01B3  0872               	movf	?___xxtofl+2,w
  1221     01B4  00DD               	movwf	Servo5@angle+2
  1222     01B5  0871               	movf	?___xxtofl+1,w
  1223     01B6  00DC               	movwf	Servo5@angle+1
  1224     01B7  0870               	movf	?___xxtofl,w
  1225     01B8  00DB               	movwf	Servo5@angle
  1226     01B9  318F  275A  3181   	fcall	_Servo5
  1227     01BC                     l2337:
  1228                           
  1229                           ;main.c: 149:             _delay((unsigned long)((100)*(32000000/4000.0)));
  1230     01BC  3005               	movlw	5
  1231     01BD  0020               	movlb	0	; select bank0
  1232     01BE  00E4               	movwf	??_main+1
  1233     01BF  300F               	movlw	15
  1234     01C0  00E3               	movwf	??_main
  1235     01C1  30F1               	movlw	241
  1236     01C2                     u2857:
  1237     01C2  0B89               	decfsz	9,f
  1238     01C3  29C2               	goto	u2857
  1239     01C4  0BE3               	decfsz	??_main,f
  1240     01C5  29C2               	goto	u2857
  1241     01C6  0BE4               	decfsz	??_main+1,f
  1242     01C7  29C2               	goto	u2857
  1243     01C8                     l2339:
  1244                           
  1245                           ;main.c: 150:         }
  1246     01C8  3001               	movlw	1
  1247     01C9  0020               	movlb	0	; select bank0
  1248     01CA  07E5               	addwf	main@i,f
  1249     01CB  3000               	movlw	0
  1250     01CC  3DE6               	addwfc	main@i+1,f
  1251     01CD                     l2341:
  1252     01CD  0866               	movf	main@i+1,w
  1253     01CE  3A80               	xorlw	128
  1254     01CF  00E3               	movwf	??_main
  1255     01D0  3080               	movlw	128
  1256     01D1  0263               	subwf	??_main,w
  1257     01D2  1D03               	skipz
  1258     01D3  29D6               	goto	u2835
  1259     01D4  30B5               	movlw	181
  1260     01D5  0265               	subwf	main@i,w
  1261     01D6                     u2835:
  1262     01D6  1C03               	skipc
  1263     01D7  29D9               	goto	u2831
  1264     01D8  29DA               	goto	u2830
  1265     01D9                     u2831:
  1266     01D9  29A2               	goto	l2335
  1267     01DA                     u2830:
  1268     01DA                     l2343:
  1269                           
  1270                           ;main.c: 151:         for(int i = 180; i >= 0; i--){
  1271     01DA  30B4               	movlw	180
  1272     01DB  0020               	movlb	0	; select bank0
  1273     01DC  00E7               	movwf	main@i_321
  1274     01DD  3000               	movlw	0
  1275     01DE  00E8               	movwf	main@i_321+1
  1276     01DF                     l2349:
  1277                           
  1278                           ;main.c: 152:             Servo5(i);
  1279     01DF  0867               	movf	main@i_321,w
  1280     01E0  00F0               	movwf	___xxtofl@val
  1281     01E1  0868               	movf	main@i_321+1,w
  1282     01E2  00F1               	movwf	___xxtofl@val+1
  1283     01E3  0D89               	rlf	9,f
  1284     01E4  3B89               	subwfb	9,f
  1285     01E5  0989               	comf	9,f
  1286     01E6  00F2               	movwf	___xxtofl@val+2
  1287     01E7  00F3               	movwf	___xxtofl@val+3
  1288     01E8  3001               	movlw	1
  1289     01E9  3180  208D  3181   	fcall	___xxtofl
  1290     01EC  0873               	movf	?___xxtofl+3,w
  1291     01ED  0020               	movlb	0	; select bank0
  1292     01EE  00DE               	movwf	Servo5@angle+3
  1293     01EF  0872               	movf	?___xxtofl+2,w
  1294     01F0  00DD               	movwf	Servo5@angle+2
  1295     01F1  0871               	movf	?___xxtofl+1,w
  1296     01F2  00DC               	movwf	Servo5@angle+1
  1297     01F3  0870               	movf	?___xxtofl,w
  1298     01F4  00DB               	movwf	Servo5@angle
  1299     01F5  318F  275A  3181   	fcall	_Servo5
  1300     01F8                     l2351:
  1301                           
  1302                           ;main.c: 153:             _delay((unsigned long)((100)*(32000000/4000.0)));
  1303     01F8  3005               	movlw	5
  1304     01F9  0020               	movlb	0	; select bank0
  1305     01FA  00E4               	movwf	??_main+1
  1306     01FB  300F               	movlw	15
  1307     01FC  00E3               	movwf	??_main
  1308     01FD  30F1               	movlw	241
  1309     01FE                     u2867:
  1310     01FE  0B89               	decfsz	9,f
  1311     01FF  29FE               	goto	u2867
  1312     0200  0BE3               	decfsz	??_main,f
  1313     0201  29FE               	goto	u2867
  1314     0202  0BE4               	decfsz	??_main+1,f
  1315     0203  29FE               	goto	u2867
  1316     0204                     l2353:
  1317                           
  1318                           ;main.c: 154:         }
  1319     0204  30FF               	movlw	255
  1320     0205  0020               	movlb	0	; select bank0
  1321     0206  07E7               	addwf	main@i_321,f
  1322     0207  30FF               	movlw	255
  1323     0208  3DE8               	addwfc	main@i_321+1,f
  1324     0209                     l2355:
  1325     0209  1FE8               	btfss	main@i_321+1,7
  1326     020A  2A0C               	goto	u2841
  1327     020B  2A0D               	goto	u2840
  1328     020C                     u2841:
  1329     020C  29DF               	goto	l2349
  1330     020D                     u2840:
  1331     020D  299F               	goto	l2329
  1332     020E  3180  2802         	ljmp	start
  1333     0210                     __end_of_main:
  1334                           
  1335                           	psect	text1
  1336     008D                     __ptext1:	
  1337 ;; *************** function ___xxtofl *****************
  1338 ;; Defined at:
  1339 ;;		line 10 in file "D:\Program Files\Microchip\xc8\v2.40\pic\sources\c99\common\xxtofl.c"
  1340 ;; Parameters:    Size  Location     Type
  1341 ;;  sign            1    wreg     unsigned char 
  1342 ;;  val             4    0[COMMON] long 
  1343 ;; Auto vars:     Size  Location     Type
  1344 ;;  sign            1    8[COMMON] unsigned char 
  1345 ;;  arg             4   10[COMMON] unsigned long 
  1346 ;;  exp             1    9[COMMON] unsigned char 
  1347 ;; Return value:  Size  Location     Type
  1348 ;;                  4    0[COMMON] unsigned char 
  1349 ;; Registers used:
  1350 ;;		wreg, status,2, status,0
  1351 ;; Tracked objects:
  1352 ;;		On entry : 0/0
  1353 ;;		On exit  : 0/0
  1354 ;;		Unchanged: 0/0
  1355 ;; Data sizes:     COMMON   BANK0   BANK1   BANK2   BANK3   BANK4   BANK5   BANK6   BANK7   BANK8   BANK9  BANK10  BANK1
      +1  BANK12  BANK13  BANK14  BANK15  BANK16  BANK17  BANK18  BANK19  BANK20  BANK21  BANK22  BANK23  BANK24  BANK25
  1356 ;;      Params:         4       0       0       0       0       0       0       0       0       0       0       0       
      +0       0       0       0       0       0       0       0       0       0       0       0       0       0       0
  1357 ;;      Locals:         6       0       0       0       0       0       0       0       0       0       0       0       
      +0       0       0       0       0       0       0       0       0       0       0       0       0       0       0
  1358 ;;      Temps:          4       0       0       0       0       0       0       0       0       0       0       0       
      +0       0       0       0       0       0       0       0       0       0       0       0       0       0       0
  1359 ;;      Totals:        14       0       0       0       0       0       0       0       0       0       0       0       
      +0       0       0       0       0       0       0       0       0       0       0       0       0       0       0
  1360 ;;Total ram usage:       14 bytes
  1361 ;; Hardware stack levels used: 1
  1362 ;; This function calls:
  1363 ;;		Nothing
  1364 ;; This function is called by:
  1365 ;;		_main
  1366 ;; This function uses a non-reentrant model
  1367 ;;
  1368                           
  1369     008D                     ___xxtofl:	
  1370                           ;psect for function ___xxtofl
  1371                           
  1372                           
  1373                           ;incstack = 0
  1374                           ; Regs used in ___xxtofl: [wreg+status,2+status,0]
  1375                           ;___xxtofl@sign stored from wreg
  1376     008D  00F8               	movwf	___xxtofl@sign
  1377     008E                     l2191:
  1378     008E  0878               	movf	___xxtofl@sign,w
  1379     008F  1903               	btfsc	3,2
  1380     0090  2892               	goto	u2691
  1381     0091  2893               	goto	u2690
  1382     0092                     u2691:
  1383     0092  28A7               	goto	l2197
  1384     0093                     u2690:
  1385     0093                     l2193:
  1386     0093  1FF3               	btfss	___xxtofl@val+3,7
  1387     0094  2896               	goto	u2701
  1388     0095  2897               	goto	u2700
  1389     0096                     u2701:
  1390     0096  28A7               	goto	l2197
  1391     0097                     u2700:
  1392     0097                     l2195:
  1393     0097  0970               	comf	___xxtofl@val,w
  1394     0098  00FA               	movwf	___xxtofl@arg
  1395     0099  0971               	comf	___xxtofl@val+1,w
  1396     009A  00FB               	movwf	___xxtofl@arg+1
  1397     009B  0972               	comf	___xxtofl@val+2,w
  1398     009C  00FC               	movwf	___xxtofl@arg+2
  1399     009D  0973               	comf	___xxtofl@val+3,w
  1400     009E  00FD               	movwf	___xxtofl@arg+3
  1401     009F  0AFA               	incf	___xxtofl@arg,f
  1402     00A0  1903               	skipnz
  1403     00A1  0AFB               	incf	___xxtofl@arg+1,f
  1404     00A2  1903               	skipnz
  1405     00A3  0AFC               	incf	___xxtofl@arg+2,f
  1406     00A4  1903               	skipnz
  1407     00A5  0AFD               	incf	___xxtofl@arg+3,f
  1408     00A6  28AF               	goto	l724
  1409     00A7                     l2197:
  1410     00A7  0873               	movf	___xxtofl@val+3,w
  1411     00A8  00FD               	movwf	___xxtofl@arg+3
  1412     00A9  0872               	movf	___xxtofl@val+2,w
  1413     00AA  00FC               	movwf	___xxtofl@arg+2
  1414     00AB  0871               	movf	___xxtofl@val+1,w
  1415     00AC  00FB               	movwf	___xxtofl@arg+1
  1416     00AD  0870               	movf	___xxtofl@val,w
  1417     00AE  00FA               	movwf	___xxtofl@arg
  1418     00AF                     l724:
  1419     00AF  0873               	movf	___xxtofl@val+3,w
  1420     00B0  0472               	iorwf	___xxtofl@val+2,w
  1421     00B1  0471               	iorwf	___xxtofl@val+1,w
  1422     00B2  0470               	iorwf	___xxtofl@val,w
  1423     00B3  1D03               	skipz
  1424     00B4  28B6               	goto	u2711
  1425     00B5  28B7               	goto	u2710
  1426     00B6                     u2711:
  1427     00B6  28C0               	goto	l2203
  1428     00B7                     u2710:
  1429     00B7                     l2199:
  1430     00B7  3000               	movlw	0
  1431     00B8  00F3               	movwf	?___xxtofl+3
  1432     00B9  3000               	movlw	0
  1433     00BA  00F2               	movwf	?___xxtofl+2
  1434     00BB  3000               	movlw	0
  1435     00BC  00F1               	movwf	?___xxtofl+1
  1436     00BD  3000               	movlw	0
  1437     00BE  00F0               	movwf	?___xxtofl
  1438     00BF  2936               	goto	l726
  1439     00C0                     l2203:
  1440     00C0  3096               	movlw	150
  1441     00C1  00F9               	movwf	___xxtofl@exp
  1442     00C2  28CE               	goto	l2207
  1443     00C3                     l2205:
  1444     00C3  3001               	movlw	1
  1445     00C4  00F4               	movwf	??___xxtofl
  1446     00C5  0874               	movf	??___xxtofl,w
  1447     00C6  07F9               	addwf	___xxtofl@exp,f
  1448     00C7  3001               	movlw	1
  1449     00C8                     u2725:
  1450     00C8  36FD               	lsrf	___xxtofl@arg+3,f
  1451     00C9  0CFC               	rrf	___xxtofl@arg+2,f
  1452     00CA  0CFB               	rrf	___xxtofl@arg+1,f
  1453     00CB  0CFA               	rrf	___xxtofl@arg,f
  1454     00CC  0B89               	decfsz	9,f
  1455     00CD  28C8               	goto	u2725
  1456     00CE                     l2207:
  1457     00CE  30FE               	movlw	254
  1458     00CF  057D               	andwf	___xxtofl@arg+3,w
  1459     00D0  1D03               	btfss	3,2
  1460     00D1  28D3               	goto	u2731
  1461     00D2  28D4               	goto	u2730
  1462     00D3                     u2731:
  1463     00D3  28C3               	goto	l2205
  1464     00D4                     u2730:
  1465     00D4  28E8               	goto	l730
  1466     00D5                     l2209:
  1467     00D5  3001               	movlw	1
  1468     00D6  00F4               	movwf	??___xxtofl
  1469     00D7  0874               	movf	??___xxtofl,w
  1470     00D8  07F9               	addwf	___xxtofl@exp,f
  1471     00D9                     l2211:
  1472     00D9  3001               	movlw	1
  1473     00DA  07FA               	addwf	___xxtofl@arg,f
  1474     00DB  3000               	movlw	0
  1475     00DC  3DFB               	addwfc	___xxtofl@arg+1,f
  1476     00DD  3000               	movlw	0
  1477     00DE  3DFC               	addwfc	___xxtofl@arg+2,f
  1478     00DF  3000               	movlw	0
  1479     00E0  3DFD               	addwfc	___xxtofl@arg+3,f
  1480     00E1                     l2213:
  1481     00E1  3001               	movlw	1
  1482     00E2                     u2745:
  1483     00E2  36FD               	lsrf	___xxtofl@arg+3,f
  1484     00E3  0CFC               	rrf	___xxtofl@arg+2,f
  1485     00E4  0CFB               	rrf	___xxtofl@arg+1,f
  1486     00E5  0CFA               	rrf	___xxtofl@arg,f
  1487     00E6  0B89               	decfsz	9,f
  1488     00E7  28E2               	goto	u2745
  1489     00E8                     l730:
  1490     00E8  30FF               	movlw	255
  1491     00E9  057D               	andwf	___xxtofl@arg+3,w
  1492     00EA  1D03               	btfss	3,2
  1493     00EB  28ED               	goto	u2751
  1494     00EC  28EE               	goto	u2750
  1495     00ED                     u2751:
  1496     00ED  28D5               	goto	l2209
  1497     00EE                     u2750:
  1498     00EE  28F8               	goto	l2217
  1499     00EF                     l2215:
  1500     00EF  3001               	movlw	1
  1501     00F0  02F9               	subwf	___xxtofl@exp,f
  1502     00F1  3001               	movlw	1
  1503     00F2                     u2765:
  1504     00F2  35FA               	lslf	___xxtofl@arg,f
  1505     00F3  0DFB               	rlf	___xxtofl@arg+1,f
  1506     00F4  0DFC               	rlf	___xxtofl@arg+2,f
  1507     00F5  0DFD               	rlf	___xxtofl@arg+3,f
  1508     00F6  0B89               	decfsz	9,f
  1509     00F7  28F2               	goto	u2765
  1510     00F8                     l2217:
  1511     00F8  1BFC               	btfsc	___xxtofl@arg+2,7
  1512     00F9  28FB               	goto	u2771
  1513     00FA  28FC               	goto	u2770
  1514     00FB                     u2771:
  1515     00FB  2902               	goto	l737
  1516     00FC                     u2770:
  1517     00FC                     l2219:
  1518     00FC  3002               	movlw	2
  1519     00FD  0279               	subwf	___xxtofl@exp,w
  1520     00FE  1803               	skipnc
  1521     00FF  2901               	goto	u2781
  1522     0100  2902               	goto	u2780
  1523     0101                     u2781:
  1524     0101  28EF               	goto	l2215
  1525     0102                     u2780:
  1526     0102                     l737:
  1527     0102  1879               	btfsc	___xxtofl@exp,0
  1528     0103  2905               	goto	u2791
  1529     0104  2906               	goto	u2790
  1530     0105                     u2791:
  1531     0105  290E               	goto	l738
  1532     0106                     u2790:
  1533     0106                     l2221:
  1534     0106  30FF               	movlw	255
  1535     0107  05FA               	andwf	___xxtofl@arg,f
  1536     0108  30FF               	movlw	255
  1537     0109  05FB               	andwf	___xxtofl@arg+1,f
  1538     010A  307F               	movlw	127
  1539     010B  05FC               	andwf	___xxtofl@arg+2,f
  1540     010C  30FF               	movlw	255
  1541     010D  05FD               	andwf	___xxtofl@arg+3,f
  1542     010E                     l738:
  1543     010E  1003               	clrc
  1544     010F  0CF9               	rrf	___xxtofl@exp,f
  1545     0110                     l2223:
  1546     0110  0879               	movf	___xxtofl@exp,w
  1547     0111  00F4               	movwf	??___xxtofl
  1548     0112  01F5               	clrf	??___xxtofl+1
  1549     0113  01F6               	clrf	??___xxtofl+2
  1550     0114  01F7               	clrf	??___xxtofl+3
  1551     0115  3018               	movlw	24
  1552     0116                     u2805:
  1553     0116  35F4               	lslf	??___xxtofl,f
  1554     0117  0DF5               	rlf	??___xxtofl+1,f
  1555     0118  0DF6               	rlf	??___xxtofl+2,f
  1556     0119  0DF7               	rlf	??___xxtofl+3,f
  1557     011A                     u2800:
  1558     011A  0B89               	decfsz	9,f
  1559     011B  2916               	goto	u2805
  1560     011C  0874               	movf	??___xxtofl,w
  1561     011D  04FA               	iorwf	___xxtofl@arg,f
  1562     011E  0875               	movf	??___xxtofl+1,w
  1563     011F  04FB               	iorwf	___xxtofl@arg+1,f
  1564     0120  0876               	movf	??___xxtofl+2,w
  1565     0121  04FC               	iorwf	___xxtofl@arg+2,f
  1566     0122  0877               	movf	??___xxtofl+3,w
  1567     0123  04FD               	iorwf	___xxtofl@arg+3,f
  1568     0124                     l2225:
  1569     0124  0878               	movf	___xxtofl@sign,w
  1570     0125  1903               	btfsc	3,2
  1571     0126  2928               	goto	u2811
  1572     0127  2929               	goto	u2810
  1573     0128                     u2811:
  1574     0128  292E               	goto	l2231
  1575     0129                     u2810:
  1576     0129                     l2227:
  1577     0129  1FF3               	btfss	___xxtofl@val+3,7
  1578     012A  292C               	goto	u2821
  1579     012B  292D               	goto	u2820
  1580     012C                     u2821:
  1581     012C  292E               	goto	l2231
  1582     012D                     u2820:
  1583     012D                     l2229:
  1584     012D  17FD               	bsf	___xxtofl@arg+3,7
  1585     012E                     l2231:
  1586     012E  087D               	movf	___xxtofl@arg+3,w
  1587     012F  00F3               	movwf	?___xxtofl+3
  1588     0130  087C               	movf	___xxtofl@arg+2,w
  1589     0131  00F2               	movwf	?___xxtofl+2
  1590     0132  087B               	movf	___xxtofl@arg+1,w
  1591     0133  00F1               	movwf	?___xxtofl+1
  1592     0134  087A               	movf	___xxtofl@arg,w
  1593     0135  00F0               	movwf	?___xxtofl
  1594     0136                     l726:
  1595     0136  0008               	return
  1596     0137                     __end_of___xxtofl:
  1597                           
  1598                           	psect	text2
  1599     0F5A                     __ptext2:	
  1600 ;; *************** function _Servo5 *****************
  1601 ;; Defined at:
  1602 ;;		line 300 in file "main.c"
  1603 ;; Parameters:    Size  Location     Type
  1604 ;;  angle           4   59[BANK0 ] unsigned char 
  1605 ;; Auto vars:     Size  Location     Type
  1606 ;;  duty            4   63[BANK0 ] unsigned char 
  1607 ;; Return value:  Size  Location     Type
  1608 ;;                  1    wreg      void 
  1609 ;; Registers used:
  1610 ;;		wreg, status,2, status,0, pclath, cstack
  1611 ;; Tracked objects:
  1612 ;;		On entry : 0/0
  1613 ;;		On exit  : 0/0
  1614 ;;		Unchanged: 0/0
  1615 ;; Data sizes:     COMMON   BANK0   BANK1   BANK2   BANK3   BANK4   BANK5   BANK6   BANK7   BANK8   BANK9  BANK10  BANK1
      +1  BANK12  BANK13  BANK14  BANK15  BANK16  BANK17  BANK18  BANK19  BANK20  BANK21  BANK22  BANK23  BANK24  BANK25
  1616 ;;      Params:         0       4       0       0       0       0       0       0       0       0       0       0       
      +0       0       0       0       0       0       0       0       0       0       0       0       0       0       0
  1617 ;;      Locals:         0       4       0       0       0       0       0       0       0       0       0       0       
      +0       0       0       0       0       0       0       0       0       0       0       0       0       0       0
  1618 ;;      Temps:          0       0       0       0       0       0       0       0       0       0       0       0       
      +0       0       0       0       0       0       0       0       0       0       0       0       0       0       0
  1619 ;;      Totals:         0       8       0       0       0       0       0       0       0       0       0       0       
      +0       0       0       0       0       0       0       0       0       0       0       0       0       0       0
  1620 ;;Total ram usage:        8 bytes
  1621 ;; Hardware stack levels used: 1
  1622 ;; Hardware stack levels required when called: 2
  1623 ;; This function calls:
  1624 ;;		___fladd
  1625 ;;		___fldiv
  1626 ;;		___flge
  1627 ;;		___flmul
  1628 ;;		___fltol
  1629 ;; This function is called by:
  1630 ;;		_main
  1631 ;; This function uses a non-reentrant model
  1632 ;;
  1633                           
  1634     0F5A                     _Servo5:	
  1635                           ;psect for function _Servo5
  1636                           
  1637     0F5A                     l2177:	
  1638                           ;incstack = 0
  1639                           ; Regs used in _Servo5: [wreg+status,2+status,0+pclath+cstack]
  1640                           
  1641                           
  1642                           ;main.c: 302:     double duty;;main.c: 304:     angle > 180 ? (angle = 180) : angle;
  1643     0F5A  3043               	movlw	67
  1644     0F5B  00F3               	movwf	___flge@ff1+3
  1645     0F5C  3034               	movlw	52
  1646     0F5D  00F2               	movwf	___flge@ff1+2
  1647     0F5E  3000               	movlw	0
  1648     0F5F  00F1               	movwf	___flge@ff1+1
  1649     0F60  3000               	movlw	0
  1650     0F61  00F0               	movwf	___flge@ff1
  1651     0F62  0020               	movlb	0	; select bank0
  1652     0F63  085E               	movf	Servo5@angle+3,w
  1653     0F64  00F7               	movwf	___flge@ff2+3
  1654     0F65  085D               	movf	Servo5@angle+2,w
  1655     0F66  00F6               	movwf	___flge@ff2+2
  1656     0F67  085C               	movf	Servo5@angle+1,w
  1657     0F68  00F5               	movwf	___flge@ff2+1
  1658     0F69  085B               	movf	Servo5@angle,w
  1659     0F6A  00F4               	movwf	___flge@ff2
  1660     0F6B  318E  26D0  318F   	fcall	___flge
  1661     0F6E  1803               	btfsc	3,0
  1662     0F6F  2F71               	goto	u2671
  1663     0F70  2F72               	goto	u2670
  1664     0F71                     u2671:
  1665     0F71  2F7B               	goto	l2181
  1666     0F72                     u2670:
  1667     0F72                     l2179:
  1668     0F72  3043               	movlw	67
  1669     0F73  0020               	movlb	0	; select bank0
  1670     0F74  00DE               	movwf	Servo5@angle+3
  1671     0F75  3034               	movlw	52
  1672     0F76  00DD               	movwf	Servo5@angle+2
  1673     0F77  3000               	movlw	0
  1674     0F78  00DC               	movwf	Servo5@angle+1
  1675     0F79  3000               	movlw	0
  1676     0F7A  00DB               	movwf	Servo5@angle
  1677     0F7B                     l2181:
  1678                           
  1679                           ;main.c: 305:     angle < 0 ? (angle = 0) : angle;
  1680     0F7B  0020               	movlb	0	; select bank0
  1681     0F7C  085E               	movf	Servo5@angle+3,w
  1682     0F7D  00F3               	movwf	___flge@ff1+3
  1683     0F7E  085D               	movf	Servo5@angle+2,w
  1684     0F7F  00F2               	movwf	___flge@ff1+2
  1685     0F80  085C               	movf	Servo5@angle+1,w
  1686     0F81  00F1               	movwf	___flge@ff1+1
  1687     0F82  085B               	movf	Servo5@angle,w
  1688     0F83  00F0               	movwf	___flge@ff1
  1689     0F84  3000               	movlw	0
  1690     0F85  00F7               	movwf	___flge@ff2+3
  1691     0F86  3000               	movlw	0
  1692     0F87  00F6               	movwf	___flge@ff2+2
  1693     0F88  3000               	movlw	0
  1694     0F89  00F5               	movwf	___flge@ff2+1
  1695     0F8A  3000               	movlw	0
  1696     0F8B  00F4               	movwf	___flge@ff2
  1697     0F8C  318E  26D0  318F   	fcall	___flge
  1698     0F8F  1803               	btfsc	3,0
  1699     0F90  2F92               	goto	u2681
  1700     0F91  2F93               	goto	u2680
  1701     0F92                     u2681:
  1702     0F92  2F9C               	goto	l2185
  1703     0F93                     u2680:
  1704     0F93                     l2183:
  1705     0F93  3000               	movlw	0
  1706     0F94  0020               	movlb	0	; select bank0
  1707     0F95  00DE               	movwf	Servo5@angle+3
  1708     0F96  3000               	movlw	0
  1709     0F97  00DD               	movwf	Servo5@angle+2
  1710     0F98  3000               	movlw	0
  1711     0F99  00DC               	movwf	Servo5@angle+1
  1712     0F9A  3000               	movlw	0
  1713     0F9B  00DB               	movwf	Servo5@angle
  1714     0F9C                     l2185:
  1715                           
  1716                           ;main.c: 307:     duty = (3800 * (angle / 180)) + 999;
  1717     0F9C  3044               	movlw	68
  1718     0F9D  0020               	movlb	0	; select bank0
  1719     0F9E  00CA               	movwf	___fladd@b+3
  1720     0F9F  3079               	movlw	121
  1721     0FA0  00C9               	movwf	___fladd@b+2
  1722     0FA1  30C0               	movlw	192
  1723     0FA2  00C8               	movwf	___fladd@b+1
  1724     0FA3  3000               	movlw	0
  1725     0FA4  00C7               	movwf	___fladd@b
  1726     0FA5  3045               	movlw	69
  1727     0FA6  00B0               	movwf	___flmul@b+3
  1728     0FA7  306D               	movlw	109
  1729     0FA8  00AF               	movwf	___flmul@b+2
  1730     0FA9  3080               	movlw	128
  1731     0FAA  00AE               	movwf	___flmul@b+1
  1732     0FAB  3000               	movlw	0
  1733     0FAC  00AD               	movwf	___flmul@b
  1734     0FAD  3043               	movlw	67
  1735     0FAE  00F3               	movwf	___fldiv@a+3
  1736     0FAF  3034               	movlw	52
  1737     0FB0  00F2               	movwf	___fldiv@a+2
  1738     0FB1  3000               	movlw	0
  1739     0FB2  00F1               	movwf	___fldiv@a+1
  1740     0FB3  3000               	movlw	0
  1741     0FB4  00F0               	movwf	___fldiv@a
  1742     0FB5  085E               	movf	Servo5@angle+3,w
  1743     0FB6  00F7               	movwf	___fldiv@b+3
  1744     0FB7  085D               	movf	Servo5@angle+2,w
  1745     0FB8  00F6               	movwf	___fldiv@b+2
  1746     0FB9  085C               	movf	Servo5@angle+1,w
  1747     0FBA  00F5               	movwf	___fldiv@b+1
  1748     0FBB  085B               	movf	Servo5@angle,w
  1749     0FBC  00F4               	movwf	___fldiv@b
  1750     0FBD  3182  2210  318F   	fcall	___fldiv
  1751     0FC0  0873               	movf	?___fldiv+3,w
  1752     0FC1  0020               	movlb	0	; select bank0
  1753     0FC2  00B4               	movwf	___flmul@a+3
  1754     0FC3  0872               	movf	?___fldiv+2,w
  1755     0FC4  00B3               	movwf	___flmul@a+2
  1756     0FC5  0871               	movf	?___fldiv+1,w
  1757     0FC6  00B2               	movwf	___flmul@a+1
  1758     0FC7  0870               	movf	?___fldiv,w
  1759     0FC8  00B1               	movwf	___flmul@a
  1760     0FC9  3185  25C2  318F   	fcall	___flmul
  1761     0FCC  0020               	movlb	0	; select bank0
  1762     0FCD  0830               	movf	?___flmul+3,w
  1763     0FCE  00CE               	movwf	___fladd@a+3
  1764     0FCF  082F               	movf	?___flmul+2,w
  1765     0FD0  00CD               	movwf	___fladd@a+2
  1766     0FD1  082E               	movf	?___flmul+1,w
  1767     0FD2  00CC               	movwf	___fladd@a+1
  1768     0FD3  082D               	movf	?___flmul,w
  1769     0FD4  00CB               	movwf	___fladd@a
  1770     0FD5  3183  23BA  318F   	fcall	___fladd
  1771     0FD8  0020               	movlb	0	; select bank0
  1772     0FD9  084A               	movf	?___fladd+3,w
  1773     0FDA  00E2               	movwf	Servo5@duty+3
  1774     0FDB  0849               	movf	?___fladd+2,w
  1775     0FDC  00E1               	movwf	Servo5@duty+2
  1776     0FDD  0848               	movf	?___fladd+1,w
  1777     0FDE  00E0               	movwf	Servo5@duty+1
  1778     0FDF  0847               	movf	?___fladd,w
  1779     0FE0  00DF               	movwf	Servo5@duty
  1780                           
  1781                           ;main.c: 310:     PWM5DCH = ((int)duty >> 8) & 0x00FF;
  1782     0FE1  0862               	movf	Servo5@duty+3,w
  1783     0FE2  00F3               	movwf	___fltol@f1+3
  1784     0FE3  0861               	movf	Servo5@duty+2,w
  1785     0FE4  00F2               	movwf	___fltol@f1+2
  1786     0FE5  0860               	movf	Servo5@duty+1,w
  1787     0FE6  00F1               	movwf	___fltol@f1+1
  1788     0FE7  085F               	movf	Servo5@duty,w
  1789     0FE8  00F0               	movwf	___fltol@f1
  1790     0FE9  3180  201D  318F   	fcall	___fltol
  1791     0FEC  0871               	movf	?___fltol+1,w
  1792     0FED  003B               	movlb	27	; select bank27
  1793     0FEE  0094               	movwf	20	;volatile
  1794                           
  1795                           ;main.c: 311:     PWM5DCL = (int)duty & 0x00FF;
  1796     0FEF  0020               	movlb	0	; select bank0
  1797     0FF0  0862               	movf	Servo5@duty+3,w
  1798     0FF1  00F3               	movwf	___fltol@f1+3
  1799     0FF2  0861               	movf	Servo5@duty+2,w
  1800     0FF3  00F2               	movwf	___fltol@f1+2
  1801     0FF4  0860               	movf	Servo5@duty+1,w
  1802     0FF5  00F1               	movwf	___fltol@f1+1
  1803     0FF6  085F               	movf	Servo5@duty,w
  1804     0FF7  00F0               	movwf	___fltol@f1
  1805     0FF8  3180  201D  318F   	fcall	___fltol
  1806     0FFB  0870               	movf	?___fltol,w
  1807     0FFC  003B               	movlb	27	; select bank27
  1808     0FFD  0093               	movwf	19	;volatile
  1809     0FFE                     l2187:
  1810                           
  1811                           ;main.c: 312:     PWM5LDCONbits.LDA = 1;
  1812     0FFE  179F               	bsf	31,7	;volatile
  1813     0FFF                     l215:
  1814     0FFF  0008               	return
  1815     1000                     __end_of_Servo5:
  1816                           
  1817                           	psect	text3
  1818     001D                     __ptext3:	
  1819 ;; *************** function ___fltol *****************
  1820 ;; Defined at:
  1821 ;;		line 43 in file "D:\Program Files\Microchip\xc8\v2.40\pic\sources\c99\common\fltol.c"
  1822 ;; Parameters:    Size  Location     Type
  1823 ;;  f1              4    0[COMMON] void 
  1824 ;; Auto vars:     Size  Location     Type
  1825 ;;  exp1            1    9[COMMON] unsigned char 
  1826 ;;  sign1           1    8[COMMON] unsigned char 
  1827 ;; Return value:  Size  Location     Type
  1828 ;;                  4    0[COMMON] long 
  1829 ;; Registers used:
  1830 ;;		wreg, status,2, status,0
  1831 ;; Tracked objects:
  1832 ;;		On entry : 0/0
  1833 ;;		On exit  : 0/0
  1834 ;;		Unchanged: 0/0
  1835 ;; Data sizes:     COMMON   BANK0   BANK1   BANK2   BANK3   BANK4   BANK5   BANK6   BANK7   BANK8   BANK9  BANK10  BANK1
      +1  BANK12  BANK13  BANK14  BANK15  BANK16  BANK17  BANK18  BANK19  BANK20  BANK21  BANK22  BANK23  BANK24  BANK25
  1836 ;;      Params:         4       0       0       0       0       0       0       0       0       0       0       0       
      +0       0       0       0       0       0       0       0       0       0       0       0       0       0       0
  1837 ;;      Locals:         2       0       0       0       0       0       0       0       0       0       0       0       
      +0       0       0       0       0       0       0       0       0       0       0       0       0       0       0
  1838 ;;      Temps:          4       0       0       0       0       0       0       0       0       0       0       0       
      +0       0       0       0       0       0       0       0       0       0       0       0       0       0       0
  1839 ;;      Totals:        10       0       0       0       0       0       0       0       0       0       0       0       
      +0       0       0       0       0       0       0       0       0       0       0       0       0       0       0
  1840 ;;Total ram usage:       10 bytes
  1841 ;; Hardware stack levels used: 1
  1842 ;; This function calls:
  1843 ;;		Nothing
  1844 ;; This function is called by:
  1845 ;;		_Servo5
  1846 ;; This function uses a non-reentrant model
  1847 ;;
  1848                           
  1849     001D                     ___fltol:	
  1850                           ;psect for function ___fltol
  1851                           
  1852     001D                     l1667:	
  1853                           ;incstack = 0
  1854                           ; Regs used in ___fltol: [wreg+status,2+status,0]
  1855                           
  1856     001D  1003               	clrc
  1857     001E  0D72               	rlf	___fltol@f1+2,w
  1858     001F  0D73               	rlf	___fltol@f1+3,w
  1859     0020  00F9               	movwf	___fltol@exp1
  1860     0021  0879               	movf	___fltol@exp1,w
  1861     0022  1D03               	btfss	3,2
  1862     0023  2825               	goto	u1591
  1863     0024  2826               	goto	u1590
  1864     0025                     u1591:
  1865     0025  282F               	goto	l1673
  1866     0026                     u1590:
  1867     0026                     l1669:
  1868     0026  3000               	movlw	0
  1869     0027  00F3               	movwf	?___fltol+3
  1870     0028  3000               	movlw	0
  1871     0029  00F2               	movwf	?___fltol+2
  1872     002A  3000               	movlw	0
  1873     002B  00F1               	movwf	?___fltol+1
  1874     002C  3000               	movlw	0
  1875     002D  00F0               	movwf	?___fltol
  1876     002E  288C               	goto	l477
  1877     002F                     l1673:
  1878     002F  0870               	movf	___fltol@f1,w
  1879     0030  00F4               	movwf	??___fltol
  1880     0031  0871               	movf	___fltol@f1+1,w
  1881     0032  00F5               	movwf	??___fltol+1
  1882     0033  0872               	movf	___fltol@f1+2,w
  1883     0034  00F6               	movwf	??___fltol+2
  1884     0035  0873               	movf	___fltol@f1+3,w
  1885     0036  00F7               	movwf	??___fltol+3
  1886     0037  301F               	movlw	31
  1887     0038                     u1605:
  1888     0038  36F7               	lsrf	??___fltol+3,f
  1889     0039  0CF6               	rrf	??___fltol+2,f
  1890     003A  0CF5               	rrf	??___fltol+1,f
  1891     003B  0CF4               	rrf	??___fltol,f
  1892     003C                     u1600:
  1893     003C  0B89               	decfsz	9,f
  1894     003D  2838               	goto	u1605
  1895     003E  0874               	movf	??___fltol,w
  1896     003F  00F8               	movwf	___fltol@sign1
  1897     0040                     l1675:
  1898     0040  17F2               	bsf	___fltol@f1+2,7
  1899     0041                     l1677:
  1900     0041  30FF               	movlw	255
  1901     0042  05F0               	andwf	___fltol@f1,f
  1902     0043  30FF               	movlw	255
  1903     0044  05F1               	andwf	___fltol@f1+1,f
  1904     0045  30FF               	movlw	255
  1905     0046  05F2               	andwf	___fltol@f1+2,f
  1906     0047  3000               	movlw	0
  1907     0048  05F3               	andwf	___fltol@f1+3,f
  1908     0049                     l1679:
  1909     0049  3096               	movlw	150
  1910     004A  02F9               	subwf	___fltol@exp1,f
  1911     004B                     l1681:
  1912     004B  1FF9               	btfss	___fltol@exp1,7
  1913     004C  284E               	goto	u1611
  1914     004D  284F               	goto	u1610
  1915     004E                     u1611:
  1916     004E  2867               	goto	l1691
  1917     004F                     u1610:
  1918     004F                     l1683:
  1919     004F  0879               	movf	___fltol@exp1,w
  1920     0050  3A80               	xorlw	128
  1921     0051  3E97               	addlw	151
  1922     0052  1803               	skipnc
  1923     0053  2855               	goto	u1621
  1924     0054  2856               	goto	u1620
  1925     0055                     u1621:
  1926     0055  2857               	goto	l1689
  1927     0056                     u1620:
  1928     0056  2826               	goto	l1669
  1929     0057                     l1689:
  1930     0057  3001               	movlw	1
  1931     0058                     u1635:
  1932     0058  36F3               	lsrf	___fltol@f1+3,f
  1933     0059  0CF2               	rrf	___fltol@f1+2,f
  1934     005A  0CF1               	rrf	___fltol@f1+1,f
  1935     005B  0CF0               	rrf	___fltol@f1,f
  1936     005C  0B89               	decfsz	9,f
  1937     005D  2858               	goto	u1635
  1938     005E  3001               	movlw	1
  1939     005F  00F4               	movwf	??___fltol
  1940     0060  0874               	movf	??___fltol,w
  1941     0061  07F9               	addwf	___fltol@exp1,f
  1942     0062  1D03               	btfss	3,2
  1943     0063  2865               	goto	u1641
  1944     0064  2866               	goto	u1640
  1945     0065                     u1641:
  1946     0065  2857               	goto	l1689
  1947     0066                     u1640:
  1948     0066  287C               	goto	l1699
  1949     0067                     l1691:
  1950     0067  3020               	movlw	32
  1951     0068  0279               	subwf	___fltol@exp1,w
  1952     0069  1C03               	skipc
  1953     006A  286C               	goto	u1651
  1954     006B  286D               	goto	u1650
  1955     006C                     u1651:
  1956     006C  2877               	goto	l484
  1957     006D                     u1650:
  1958     006D  2826               	goto	l1669
  1959     006E                     l1697:
  1960     006E  3001               	movlw	1
  1961     006F                     u1665:
  1962     006F  35F0               	lslf	___fltol@f1,f
  1963     0070  0DF1               	rlf	___fltol@f1+1,f
  1964     0071  0DF2               	rlf	___fltol@f1+2,f
  1965     0072  0DF3               	rlf	___fltol@f1+3,f
  1966     0073  0B89               	decfsz	9,f
  1967     0074  286F               	goto	u1665
  1968     0075  3001               	movlw	1
  1969     0076  02F9               	subwf	___fltol@exp1,f
  1970     0077                     l484:
  1971     0077  0879               	movf	___fltol@exp1,w
  1972     0078  1D03               	btfss	3,2
  1973     0079  287B               	goto	u1671
  1974     007A  287C               	goto	u1670
  1975     007B                     u1671:
  1976     007B  286E               	goto	l1697
  1977     007C                     u1670:
  1978     007C                     l1699:
  1979     007C  0878               	movf	___fltol@sign1,w
  1980     007D  1903               	btfsc	3,2
  1981     007E  2880               	goto	u1681
  1982     007F  2881               	goto	u1680
  1983     0080                     u1681:
  1984     0080  288C               	goto	l487
  1985     0081                     u1680:
  1986     0081                     l1701:
  1987     0081  09F0               	comf	___fltol@f1,f
  1988     0082  09F1               	comf	___fltol@f1+1,f
  1989     0083  09F2               	comf	___fltol@f1+2,f
  1990     0084  09F3               	comf	___fltol@f1+3,f
  1991     0085  0AF0               	incf	___fltol@f1,f
  1992     0086  1903               	skipnz
  1993     0087  0AF1               	incf	___fltol@f1+1,f
  1994     0088  1903               	skipnz
  1995     0089  0AF2               	incf	___fltol@f1+2,f
  1996     008A  1903               	skipnz
  1997     008B  0AF3               	incf	___fltol@f1+3,f
  1998     008C                     l487:
  1999     008C                     l477:
  2000     008C  0008               	return
  2001     008D                     __end_of___fltol:
  2002                           
  2003                           	psect	text4
  2004     05C2                     __ptext4:	
  2005 ;; *************** function ___flmul *****************
  2006 ;; Defined at:
  2007 ;;		line 8 in file "D:\Program Files\Microchip\xc8\v2.40\pic\sources\c99\common\sprcmul.c"
  2008 ;; Parameters:    Size  Location     Type
  2009 ;;  b               4   13[BANK0 ] long 
  2010 ;;  a               4   17[BANK0 ] long 
  2011 ;; Auto vars:     Size  Location     Type
  2012 ;;  prod            4   33[BANK0 ] struct .
  2013 ;;  grs             4   27[BANK0 ] unsigned long 
  2014 ;;  temp            2   37[BANK0 ] struct .
  2015 ;;  bexp            1   32[BANK0 ] unsigned char 
  2016 ;;  aexp            1   31[BANK0 ] unsigned char 
  2017 ;;  sign            1   26[BANK0 ] unsigned char 
  2018 ;; Return value:  Size  Location     Type
  2019 ;;                  4   13[BANK0 ] unsigned char 
  2020 ;; Registers used:
  2021 ;;		wreg, status,2, status,0, pclath, cstack
  2022 ;; Tracked objects:
  2023 ;;		On entry : 0/0
  2024 ;;		On exit  : 0/0
  2025 ;;		Unchanged: 0/0
  2026 ;; Data sizes:     COMMON   BANK0   BANK1   BANK2   BANK3   BANK4   BANK5   BANK6   BANK7   BANK8   BANK9  BANK10  BANK1
      +1  BANK12  BANK13  BANK14  BANK15  BANK16  BANK17  BANK18  BANK19  BANK20  BANK21  BANK22  BANK23  BANK24  BANK25
  2027 ;;      Params:         0       8       0       0       0       0       0       0       0       0       0       0       
      +0       0       0       0       0       0       0       0       0       0       0       0       0       0       0
  2028 ;;      Locals:         0      13       0       0       0       0       0       0       0       0       0       0       
      +0       0       0       0       0       0       0       0       0       0       0       0       0       0       0
  2029 ;;      Temps:          0       5       0       0       0       0       0       0       0       0       0       0       
      +0       0       0       0       0       0       0       0       0       0       0       0       0       0       0
  2030 ;;      Totals:         0      26       0       0       0       0       0       0       0       0       0       0       
      +0       0       0       0       0       0       0       0       0       0       0       0       0       0       0
  2031 ;;Total ram usage:       26 bytes
  2032 ;; Hardware stack levels used: 1
  2033 ;; Hardware stack levels required when called: 1
  2034 ;; This function calls:
  2035 ;;		__Umul8_16
  2036 ;; This function is called by:
  2037 ;;		_Servo5
  2038 ;; This function uses a non-reentrant model
  2039 ;;
  2040                           
  2041     05C2                     ___flmul:	
  2042                           ;psect for function ___flmul
  2043                           
  2044     05C2                     l2037:	
  2045                           ;incstack = 0
  2046                           ; Regs used in ___flmul: [wreg+status,2+status,0+pclath+cstack]
  2047                           
  2048     05C2  0020               	movlb	0	; select bank0
  2049     05C3  0830               	movf	___flmul@b+3,w
  2050     05C4  3980               	andlw	128
  2051     05C5  00BA               	movwf	___flmul@sign
  2052     05C6                     l2039:
  2053     05C6  3530               	lslf	___flmul@b+3,w
  2054     05C7  00C0               	movwf	___flmul@bexp
  2055     05C8                     l2041:
  2056     05C8  1FAF               	btfss	___flmul@b+2,7
  2057     05C9  2DCB               	goto	u2411
  2058     05CA  2DCC               	goto	u2410
  2059     05CB                     u2411:
  2060     05CB  2DCD               	goto	l2045
  2061     05CC                     u2410:
  2062     05CC                     l2043:
  2063     05CC  1440               	bsf	___flmul@bexp,0
  2064     05CD                     l2045:
  2065     05CD  0840               	movf	___flmul@bexp,w
  2066     05CE  1903               	btfsc	3,2
  2067     05CF  2DD1               	goto	u2421
  2068     05D0  2DD2               	goto	u2420
  2069     05D1                     u2421:
  2070     05D1  2DE1               	goto	l2053
  2071     05D2                     u2420:
  2072     05D2                     l2047:
  2073     05D2  0A40               	incf	___flmul@bexp,w
  2074     05D3  1D03               	btfss	3,2
  2075     05D4  2DD6               	goto	u2431
  2076     05D5  2DD7               	goto	u2430
  2077     05D6                     u2431:
  2078     05D6  2DDF               	goto	l2051
  2079     05D7                     u2430:
  2080     05D7                     l2049:
  2081     05D7  3000               	movlw	0
  2082     05D8  00B0               	movwf	___flmul@b+3
  2083     05D9  3000               	movlw	0
  2084     05DA  00AF               	movwf	___flmul@b+2
  2085     05DB  3000               	movlw	0
  2086     05DC  00AE               	movwf	___flmul@b+1
  2087     05DD  3000               	movlw	0
  2088     05DE  00AD               	movwf	___flmul@b
  2089     05DF                     l2051:
  2090     05DF  17AF               	bsf	___flmul@b+2,7
  2091     05E0  2DE9               	goto	l2055
  2092     05E1                     l2053:
  2093     05E1  3000               	movlw	0
  2094     05E2  00B0               	movwf	___flmul@b+3
  2095     05E3  3000               	movlw	0
  2096     05E4  00AF               	movwf	___flmul@b+2
  2097     05E5  3000               	movlw	0
  2098     05E6  00AE               	movwf	___flmul@b+1
  2099     05E7  3000               	movlw	0
  2100     05E8  00AD               	movwf	___flmul@b
  2101     05E9                     l2055:
  2102     05E9  0834               	movf	___flmul@a+3,w
  2103     05EA  3980               	andlw	128
  2104     05EB  00B5               	movwf	??___flmul
  2105     05EC  0835               	movf	??___flmul,w
  2106     05ED  06BA               	xorwf	___flmul@sign,f
  2107     05EE                     l2057:
  2108     05EE  3534               	lslf	___flmul@a+3,w
  2109     05EF  00BF               	movwf	___flmul@aexp
  2110     05F0                     l2059:
  2111     05F0  1FB3               	btfss	___flmul@a+2,7
  2112     05F1  2DF3               	goto	u2441
  2113     05F2  2DF4               	goto	u2440
  2114     05F3                     u2441:
  2115     05F3  2DF5               	goto	l2063
  2116     05F4                     u2440:
  2117     05F4                     l2061:
  2118     05F4  143F               	bsf	___flmul@aexp,0
  2119     05F5                     l2063:
  2120     05F5  083F               	movf	___flmul@aexp,w
  2121     05F6  1903               	btfsc	3,2
  2122     05F7  2DF9               	goto	u2451
  2123     05F8  2DFA               	goto	u2450
  2124     05F9                     u2451:
  2125     05F9  2E09               	goto	l2071
  2126     05FA                     u2450:
  2127     05FA                     l2065:
  2128     05FA  0A3F               	incf	___flmul@aexp,w
  2129     05FB  1D03               	btfss	3,2
  2130     05FC  2DFE               	goto	u2461
  2131     05FD  2DFF               	goto	u2460
  2132     05FE                     u2461:
  2133     05FE  2E07               	goto	l2069
  2134     05FF                     u2460:
  2135     05FF                     l2067:
  2136     05FF  3000               	movlw	0
  2137     0600  00B4               	movwf	___flmul@a+3
  2138     0601  3000               	movlw	0
  2139     0602  00B3               	movwf	___flmul@a+2
  2140     0603  3000               	movlw	0
  2141     0604  00B2               	movwf	___flmul@a+1
  2142     0605  3000               	movlw	0
  2143     0606  00B1               	movwf	___flmul@a
  2144     0607                     l2069:
  2145     0607  17B3               	bsf	___flmul@a+2,7
  2146     0608  2E11               	goto	l2073
  2147     0609                     l2071:
  2148     0609  3000               	movlw	0
  2149     060A  00B4               	movwf	___flmul@a+3
  2150     060B  3000               	movlw	0
  2151     060C  00B3               	movwf	___flmul@a+2
  2152     060D  3000               	movlw	0
  2153     060E  00B2               	movwf	___flmul@a+1
  2154     060F  3000               	movlw	0
  2155     0610  00B1               	movwf	___flmul@a
  2156     0611                     l2073:
  2157     0611  083F               	movf	___flmul@aexp,w
  2158     0612  1903               	btfsc	3,2
  2159     0613  2E15               	goto	u2471
  2160     0614  2E16               	goto	u2470
  2161     0615                     u2471:
  2162     0615  2E1B               	goto	l2077
  2163     0616                     u2470:
  2164     0616                     l2075:
  2165     0616  0840               	movf	___flmul@bexp,w
  2166     0617  1D03               	btfss	3,2
  2167     0618  2E1A               	goto	u2481
  2168     0619  2E1B               	goto	u2480
  2169     061A                     u2481:
  2170     061A  2E24               	goto	l2081
  2171     061B                     u2480:
  2172     061B                     l2077:
  2173     061B  3000               	movlw	0
  2174     061C  00B0               	movwf	?___flmul+3
  2175     061D  3000               	movlw	0
  2176     061E  00AF               	movwf	?___flmul+2
  2177     061F  3000               	movlw	0
  2178     0620  00AE               	movwf	?___flmul+1
  2179     0621  3000               	movlw	0
  2180     0622  00AD               	movwf	?___flmul
  2181     0623  2FFC               	goto	l680
  2182     0624                     l2081:
  2183     0624  082D               	movf	___flmul@b,w
  2184     0625  00F0               	movwf	__Umul8_16@multiplicand
  2185     0626  0833               	movf	___flmul@a+2,w
  2186     0627  318E  26AD  3185   	fcall	__Umul8_16
  2187     062A  0871               	movf	?__Umul8_16+1,w
  2188     062B  0020               	movlb	0	; select bank0
  2189     062C  00C6               	movwf	___flmul@temp+1
  2190     062D  0870               	movf	?__Umul8_16,w
  2191     062E  00C5               	movwf	___flmul@temp
  2192     062F                     l2083:
  2193     062F  0845               	movf	___flmul@temp,w
  2194     0630  00B5               	movwf	??___flmul
  2195     0631  01B6               	clrf	??___flmul+1
  2196     0632  01B7               	clrf	??___flmul+2
  2197     0633  01B8               	clrf	??___flmul+3
  2198     0634  0838               	movf	??___flmul+3,w
  2199     0635  00BE               	movwf	___flmul@grs+3
  2200     0636  0837               	movf	??___flmul+2,w
  2201     0637  00BD               	movwf	___flmul@grs+2
  2202     0638  0836               	movf	??___flmul+1,w
  2203     0639  00BC               	movwf	___flmul@grs+1
  2204     063A  0835               	movf	??___flmul,w
  2205     063B  00BB               	movwf	___flmul@grs
  2206     063C                     l2085:
  2207     063C  0846               	movf	___flmul@temp+1,w
  2208     063D  00B5               	movwf	??___flmul
  2209     063E  01B6               	clrf	??___flmul+1
  2210     063F  01B7               	clrf	??___flmul+2
  2211     0640  01B8               	clrf	??___flmul+3
  2212     0641  0838               	movf	??___flmul+3,w
  2213     0642  00C4               	movwf	___flmul@prod+3
  2214     0643  0837               	movf	??___flmul+2,w
  2215     0644  00C3               	movwf	___flmul@prod+2
  2216     0645  0836               	movf	??___flmul+1,w
  2217     0646  00C2               	movwf	___flmul@prod+1
  2218     0647  0835               	movf	??___flmul,w
  2219     0648  00C1               	movwf	___flmul@prod
  2220     0649  082E               	movf	___flmul@b+1,w
  2221     064A  00F0               	movwf	__Umul8_16@multiplicand
  2222     064B  0832               	movf	___flmul@a+1,w
  2223     064C  318E  26AD  3185   	fcall	__Umul8_16
  2224     064F  0871               	movf	?__Umul8_16+1,w
  2225     0650  0020               	movlb	0	; select bank0
  2226     0651  00C6               	movwf	___flmul@temp+1
  2227     0652  0870               	movf	?__Umul8_16,w
  2228     0653  00C5               	movwf	___flmul@temp
  2229     0654                     l2087:
  2230     0654  0845               	movf	___flmul@temp,w
  2231     0655  00B5               	movwf	??___flmul
  2232     0656  01B6               	clrf	??___flmul+1
  2233     0657  01B7               	clrf	??___flmul+2
  2234     0658  01B8               	clrf	??___flmul+3
  2235     0659  0835               	movf	??___flmul,w
  2236     065A  07BB               	addwf	___flmul@grs,f
  2237     065B  0836               	movf	??___flmul+1,w
  2238     065C  3DBC               	addwfc	___flmul@grs+1,f
  2239     065D  0837               	movf	??___flmul+2,w
  2240     065E  3DBD               	addwfc	___flmul@grs+2,f
  2241     065F  0838               	movf	??___flmul+3,w
  2242     0660  3DBE               	addwfc	___flmul@grs+3,f
  2243     0661                     l2089:
  2244     0661  0846               	movf	___flmul@temp+1,w
  2245     0662  00B5               	movwf	??___flmul
  2246     0663  01B6               	clrf	??___flmul+1
  2247     0664  01B7               	clrf	??___flmul+2
  2248     0665  01B8               	clrf	??___flmul+3
  2249     0666  0835               	movf	??___flmul,w
  2250     0667  07C1               	addwf	___flmul@prod,f
  2251     0668  0836               	movf	??___flmul+1,w
  2252     0669  3DC2               	addwfc	___flmul@prod+1,f
  2253     066A  0837               	movf	??___flmul+2,w
  2254     066B  3DC3               	addwfc	___flmul@prod+2,f
  2255     066C  0838               	movf	??___flmul+3,w
  2256     066D  3DC4               	addwfc	___flmul@prod+3,f
  2257     066E  082F               	movf	___flmul@b+2,w
  2258     066F  00F0               	movwf	__Umul8_16@multiplicand
  2259     0670  0831               	movf	___flmul@a,w
  2260     0671  318E  26AD  3185   	fcall	__Umul8_16
  2261     0674  0871               	movf	?__Umul8_16+1,w
  2262     0675  0020               	movlb	0	; select bank0
  2263     0676  00C6               	movwf	___flmul@temp+1
  2264     0677  0870               	movf	?__Umul8_16,w
  2265     0678  00C5               	movwf	___flmul@temp
  2266     0679                     l2091:
  2267     0679  0845               	movf	___flmul@temp,w
  2268     067A  00B5               	movwf	??___flmul
  2269     067B  01B6               	clrf	??___flmul+1
  2270     067C  01B7               	clrf	??___flmul+2
  2271     067D  01B8               	clrf	??___flmul+3
  2272     067E  0835               	movf	??___flmul,w
  2273     067F  07BB               	addwf	___flmul@grs,f
  2274     0680  0836               	movf	??___flmul+1,w
  2275     0681  3DBC               	addwfc	___flmul@grs+1,f
  2276     0682  0837               	movf	??___flmul+2,w
  2277     0683  3DBD               	addwfc	___flmul@grs+2,f
  2278     0684  0838               	movf	??___flmul+3,w
  2279     0685  3DBE               	addwfc	___flmul@grs+3,f
  2280     0686                     l2093:
  2281     0686  0846               	movf	___flmul@temp+1,w
  2282     0687  00B5               	movwf	??___flmul
  2283     0688  01B6               	clrf	??___flmul+1
  2284     0689  01B7               	clrf	??___flmul+2
  2285     068A  01B8               	clrf	??___flmul+3
  2286     068B  0835               	movf	??___flmul,w
  2287     068C  07C1               	addwf	___flmul@prod,f
  2288     068D  0836               	movf	??___flmul+1,w
  2289     068E  3DC2               	addwfc	___flmul@prod+1,f
  2290     068F  0837               	movf	??___flmul+2,w
  2291     0690  3DC3               	addwfc	___flmul@prod+2,f
  2292     0691  0838               	movf	??___flmul+3,w
  2293     0692  3DC4               	addwfc	___flmul@prod+3,f
  2294     0693                     l2095:
  2295     0693  3008               	movlw	8
  2296     0694                     u2495:
  2297     0694  35BB               	lslf	___flmul@grs,f
  2298     0695  0DBC               	rlf	___flmul@grs+1,f
  2299     0696  0DBD               	rlf	___flmul@grs+2,f
  2300     0697  0DBE               	rlf	___flmul@grs+3,f
  2301     0698  0B89               	decfsz	9,f
  2302     0699  2E94               	goto	u2495
  2303     069A                     l2097:
  2304     069A  082E               	movf	___flmul@b+1,w
  2305     069B  00F0               	movwf	__Umul8_16@multiplicand
  2306     069C  0831               	movf	___flmul@a,w
  2307     069D  318E  26AD  3185   	fcall	__Umul8_16
  2308     06A0  0871               	movf	?__Umul8_16+1,w
  2309     06A1  0020               	movlb	0	; select bank0
  2310     06A2  00C6               	movwf	___flmul@temp+1
  2311     06A3  0870               	movf	?__Umul8_16,w
  2312     06A4  00C5               	movwf	___flmul@temp
  2313     06A5                     l2099:
  2314     06A5  0845               	movf	___flmul@temp,w
  2315     06A6  07BB               	addwf	___flmul@grs,f
  2316     06A7  0846               	movf	___flmul@temp+1,w
  2317     06A8  3DBC               	addwfc	___flmul@grs+1,f
  2318     06A9  3000               	movlw	0
  2319     06AA  3DBD               	addwfc	___flmul@grs+2,f
  2320     06AB  3DBE               	addwfc	___flmul@grs+3,f
  2321     06AC                     l2101:
  2322     06AC  082D               	movf	___flmul@b,w
  2323     06AD  00F0               	movwf	__Umul8_16@multiplicand
  2324     06AE  0832               	movf	___flmul@a+1,w
  2325     06AF  318E  26AD  3185   	fcall	__Umul8_16
  2326     06B2  0871               	movf	?__Umul8_16+1,w
  2327     06B3  0020               	movlb	0	; select bank0
  2328     06B4  00C6               	movwf	___flmul@temp+1
  2329     06B5  0870               	movf	?__Umul8_16,w
  2330     06B6  00C5               	movwf	___flmul@temp
  2331     06B7                     l2103:
  2332     06B7  0845               	movf	___flmul@temp,w
  2333     06B8  07BB               	addwf	___flmul@grs,f
  2334     06B9  0846               	movf	___flmul@temp+1,w
  2335     06BA  3DBC               	addwfc	___flmul@grs+1,f
  2336     06BB  3000               	movlw	0
  2337     06BC  3DBD               	addwfc	___flmul@grs+2,f
  2338     06BD  3DBE               	addwfc	___flmul@grs+3,f
  2339     06BE                     l2105:
  2340     06BE  3008               	movlw	8
  2341     06BF                     u2505:
  2342     06BF  35BB               	lslf	___flmul@grs,f
  2343     06C0  0DBC               	rlf	___flmul@grs+1,f
  2344     06C1  0DBD               	rlf	___flmul@grs+2,f
  2345     06C2  0DBE               	rlf	___flmul@grs+3,f
  2346     06C3  0B89               	decfsz	9,f
  2347     06C4  2EBF               	goto	u2505
  2348     06C5  082D               	movf	___flmul@b,w
  2349     06C6  00F0               	movwf	__Umul8_16@multiplicand
  2350     06C7  0831               	movf	___flmul@a,w
  2351     06C8  318E  26AD  3185   	fcall	__Umul8_16
  2352     06CB  0871               	movf	?__Umul8_16+1,w
  2353     06CC  0020               	movlb	0	; select bank0
  2354     06CD  00C6               	movwf	___flmul@temp+1
  2355     06CE  0870               	movf	?__Umul8_16,w
  2356     06CF  00C5               	movwf	___flmul@temp
  2357     06D0                     l2107:
  2358     06D0  0845               	movf	___flmul@temp,w
  2359     06D1  07BB               	addwf	___flmul@grs,f
  2360     06D2  0846               	movf	___flmul@temp+1,w
  2361     06D3  3DBC               	addwfc	___flmul@grs+1,f
  2362     06D4  3000               	movlw	0
  2363     06D5  3DBD               	addwfc	___flmul@grs+2,f
  2364     06D6  3DBE               	addwfc	___flmul@grs+3,f
  2365     06D7                     l2109:
  2366     06D7  082E               	movf	___flmul@b+1,w
  2367     06D8  00F0               	movwf	__Umul8_16@multiplicand
  2368     06D9  0833               	movf	___flmul@a+2,w
  2369     06DA  318E  26AD  3185   	fcall	__Umul8_16
  2370     06DD  0871               	movf	?__Umul8_16+1,w
  2371     06DE  0020               	movlb	0	; select bank0
  2372     06DF  00C6               	movwf	___flmul@temp+1
  2373     06E0  0870               	movf	?__Umul8_16,w
  2374     06E1  00C5               	movwf	___flmul@temp
  2375     06E2  0845               	movf	___flmul@temp,w
  2376     06E3  07C1               	addwf	___flmul@prod,f
  2377     06E4  0846               	movf	___flmul@temp+1,w
  2378     06E5  3DC2               	addwfc	___flmul@prod+1,f
  2379     06E6  3000               	movlw	0
  2380     06E7  3DC3               	addwfc	___flmul@prod+2,f
  2381     06E8  3DC4               	addwfc	___flmul@prod+3,f
  2382     06E9                     l2111:
  2383     06E9  082F               	movf	___flmul@b+2,w
  2384     06EA  00F0               	movwf	__Umul8_16@multiplicand
  2385     06EB  0832               	movf	___flmul@a+1,w
  2386     06EC  318E  26AD  3185   	fcall	__Umul8_16
  2387     06EF  0871               	movf	?__Umul8_16+1,w
  2388     06F0  0020               	movlb	0	; select bank0
  2389     06F1  00C6               	movwf	___flmul@temp+1
  2390     06F2  0870               	movf	?__Umul8_16,w
  2391     06F3  00C5               	movwf	___flmul@temp
  2392     06F4                     l2113:
  2393     06F4  0845               	movf	___flmul@temp,w
  2394     06F5  07C1               	addwf	___flmul@prod,f
  2395     06F6  0846               	movf	___flmul@temp+1,w
  2396     06F7  3DC2               	addwfc	___flmul@prod+1,f
  2397     06F8  3000               	movlw	0
  2398     06F9  3DC3               	addwfc	___flmul@prod+2,f
  2399     06FA  3DC4               	addwfc	___flmul@prod+3,f
  2400     06FB  082F               	movf	___flmul@b+2,w
  2401     06FC  00F0               	movwf	__Umul8_16@multiplicand
  2402     06FD  0833               	movf	___flmul@a+2,w
  2403     06FE  318E  26AD  3185   	fcall	__Umul8_16
  2404     0701  0871               	movf	?__Umul8_16+1,w
  2405     0702  0020               	movlb	0	; select bank0
  2406     0703  00C6               	movwf	___flmul@temp+1
  2407     0704  0870               	movf	?__Umul8_16,w
  2408     0705  00C5               	movwf	___flmul@temp
  2409     0706                     l2115:
  2410     0706  0845               	movf	___flmul@temp,w
  2411     0707  00B5               	movwf	??___flmul
  2412     0708  0846               	movf	___flmul@temp+1,w
  2413     0709  00B6               	movwf	??___flmul+1
  2414     070A  01B7               	clrf	??___flmul+2
  2415     070B  01B8               	clrf	??___flmul+3
  2416     070C  3008               	movlw	8
  2417     070D                     u2515:
  2418     070D  35B5               	lslf	??___flmul,f
  2419     070E  0DB6               	rlf	??___flmul+1,f
  2420     070F  0DB7               	rlf	??___flmul+2,f
  2421     0710  0DB8               	rlf	??___flmul+3,f
  2422     0711                     u2510:
  2423     0711  0B89               	decfsz	9,f
  2424     0712  2F0D               	goto	u2515
  2425     0713  0835               	movf	??___flmul,w
  2426     0714  07C1               	addwf	___flmul@prod,f
  2427     0715  0836               	movf	??___flmul+1,w
  2428     0716  3DC2               	addwfc	___flmul@prod+1,f
  2429     0717  0837               	movf	??___flmul+2,w
  2430     0718  3DC3               	addwfc	___flmul@prod+2,f
  2431     0719  0838               	movf	??___flmul+3,w
  2432     071A  3DC4               	addwfc	___flmul@prod+3,f
  2433     071B                     l2117:
  2434     071B  083B               	movf	___flmul@grs,w
  2435     071C  00B5               	movwf	??___flmul
  2436     071D  083C               	movf	___flmul@grs+1,w
  2437     071E  00B6               	movwf	??___flmul+1
  2438     071F  083D               	movf	___flmul@grs+2,w
  2439     0720  00B7               	movwf	??___flmul+2
  2440     0721  083E               	movf	___flmul@grs+3,w
  2441     0722  00B8               	movwf	??___flmul+3
  2442     0723  3018               	movlw	24
  2443     0724                     u2525:
  2444     0724  36B8               	lsrf	??___flmul+3,f
  2445     0725  0CB7               	rrf	??___flmul+2,f
  2446     0726  0CB6               	rrf	??___flmul+1,f
  2447     0727  0CB5               	rrf	??___flmul,f
  2448     0728                     u2520:
  2449     0728  0B89               	decfsz	9,f
  2450     0729  2F24               	goto	u2525
  2451     072A  0835               	movf	??___flmul,w
  2452     072B  07C1               	addwf	___flmul@prod,f
  2453     072C  0836               	movf	??___flmul+1,w
  2454     072D  3DC2               	addwfc	___flmul@prod+1,f
  2455     072E  0837               	movf	??___flmul+2,w
  2456     072F  3DC3               	addwfc	___flmul@prod+2,f
  2457     0730  0838               	movf	??___flmul+3,w
  2458     0731  3DC4               	addwfc	___flmul@prod+3,f
  2459     0732                     l2119:
  2460     0732  3008               	movlw	8
  2461     0733                     u2535:
  2462     0733  35BB               	lslf	___flmul@grs,f
  2463     0734  0DBC               	rlf	___flmul@grs+1,f
  2464     0735  0DBD               	rlf	___flmul@grs+2,f
  2465     0736  0DBE               	rlf	___flmul@grs+3,f
  2466     0737  0B89               	decfsz	9,f
  2467     0738  2F33               	goto	u2535
  2468     0739                     l2121:
  2469     0739  0840               	movf	___flmul@bexp,w
  2470     073A  073F               	addwf	___flmul@aexp,w
  2471     073B  00B5               	movwf	??___flmul
  2472     073C  01B6               	clrf	??___flmul+1
  2473     073D  0DB6               	rlf	??___flmul+1,f
  2474     073E  0835               	movf	??___flmul,w
  2475     073F  3E82               	addlw	130
  2476     0740  00C5               	movwf	___flmul@temp
  2477     0741  30FF               	movlw	255
  2478     0742  3D36               	addwfc	??___flmul+1,w
  2479     0743  00C6               	movwf	___flmul@temp+1
  2480     0744  2F5C               	goto	l2133
  2481     0745                     l2123:
  2482     0745  3001               	movlw	1
  2483     0746                     u2545:
  2484     0746  35C1               	lslf	___flmul@prod,f
  2485     0747  0DC2               	rlf	___flmul@prod+1,f
  2486     0748  0DC3               	rlf	___flmul@prod+2,f
  2487     0749  0DC4               	rlf	___flmul@prod+3,f
  2488     074A  0B89               	decfsz	9,f
  2489     074B  2F46               	goto	u2545
  2490     074C                     l2125:
  2491     074C  1FBE               	btfss	___flmul@grs+3,7
  2492     074D  2F4F               	goto	u2551
  2493     074E  2F50               	goto	u2550
  2494     074F                     u2551:
  2495     074F  2F51               	goto	l2129
  2496     0750                     u2550:
  2497     0750                     l2127:
  2498     0750  1441               	bsf	___flmul@prod,0
  2499     0751                     l2129:
  2500     0751  3001               	movlw	1
  2501     0752                     u2565:
  2502     0752  35BB               	lslf	___flmul@grs,f
  2503     0753  0DBC               	rlf	___flmul@grs+1,f
  2504     0754  0DBD               	rlf	___flmul@grs+2,f
  2505     0755  0DBE               	rlf	___flmul@grs+3,f
  2506     0756  0B89               	decfsz	9,f
  2507     0757  2F52               	goto	u2565
  2508     0758                     l2131:
  2509     0758  30FF               	movlw	255
  2510     0759  07C5               	addwf	___flmul@temp,f
  2511     075A  30FF               	movlw	255
  2512     075B  3DC6               	addwfc	___flmul@temp+1,f
  2513     075C                     l2133:
  2514     075C  1FC3               	btfss	___flmul@prod+2,7
  2515     075D  2F5F               	goto	u2571
  2516     075E  2F60               	goto	u2570
  2517     075F                     u2571:
  2518     075F  2F45               	goto	l2123
  2519     0760                     u2570:
  2520     0760                     l2135:
  2521     0760  01BF               	clrf	___flmul@aexp
  2522     0761                     l2137:
  2523     0761  1FBE               	btfss	___flmul@grs+3,7
  2524     0762  2F64               	goto	u2581
  2525     0763  2F65               	goto	u2580
  2526     0764                     u2581:
  2527     0764  2F81               	goto	l2145
  2528     0765                     u2580:
  2529     0765                     l2139:
  2530     0765  30FF               	movlw	255
  2531     0766  053B               	andwf	___flmul@grs,w
  2532     0767  00B5               	movwf	??___flmul
  2533     0768  30FF               	movlw	255
  2534     0769  053C               	andwf	___flmul@grs+1,w
  2535     076A  00B6               	movwf	??___flmul+1
  2536     076B  30FF               	movlw	255
  2537     076C  053D               	andwf	___flmul@grs+2,w
  2538     076D  00B7               	movwf	??___flmul+2
  2539     076E  307F               	movlw	127
  2540     076F  053E               	andwf	___flmul@grs+3,w
  2541     0770  00B8               	movwf	??___flmul+3
  2542     0771  0838               	movf	??___flmul+3,w
  2543     0772  0437               	iorwf	??___flmul+2,w
  2544     0773  0436               	iorwf	??___flmul+1,w
  2545     0774  0435               	iorwf	??___flmul,w
  2546     0775  1903               	skipnz
  2547     0776  2F78               	goto	u2591
  2548     0777  2F79               	goto	u2590
  2549     0778                     u2591:
  2550     0778  2F7C               	goto	l686
  2551     0779                     u2590:
  2552     0779                     l2141:
  2553     0779  01BF               	clrf	___flmul@aexp
  2554     077A  0ABF               	incf	___flmul@aexp,f
  2555     077B  2F81               	goto	l2145
  2556     077C                     l686:
  2557     077C  1C41               	btfss	___flmul@prod,0
  2558     077D  2F7F               	goto	u2601
  2559     077E  2F80               	goto	u2600
  2560     077F                     u2601:
  2561     077F  2F81               	goto	l2145
  2562     0780                     u2600:
  2563     0780  2F79               	goto	l2141
  2564     0781                     l2145:
  2565     0781  083F               	movf	___flmul@aexp,w
  2566     0782  1903               	btfsc	3,2
  2567     0783  2F85               	goto	u2611
  2568     0784  2F86               	goto	u2610
  2569     0785                     u2611:
  2570     0785  2FAE               	goto	l2155
  2571     0786                     u2610:
  2572     0786                     l2147:
  2573     0786  3001               	movlw	1
  2574     0787  07C1               	addwf	___flmul@prod,f
  2575     0788  3000               	movlw	0
  2576     0789  3DC2               	addwfc	___flmul@prod+1,f
  2577     078A  3000               	movlw	0
  2578     078B  3DC3               	addwfc	___flmul@prod+2,f
  2579     078C  3000               	movlw	0
  2580     078D  3DC4               	addwfc	___flmul@prod+3,f
  2581     078E                     l2149:
  2582     078E  1C44               	btfss	___flmul@prod+3,0
  2583     078F  2F91               	goto	u2621
  2584     0790  2F92               	goto	u2620
  2585     0791                     u2621:
  2586     0791  2FAE               	goto	l2155
  2587     0792                     u2620:
  2588     0792                     l2151:
  2589     0792  0841               	movf	___flmul@prod,w
  2590     0793  00B5               	movwf	??___flmul
  2591     0794  0842               	movf	___flmul@prod+1,w
  2592     0795  00B6               	movwf	??___flmul+1
  2593     0796  0843               	movf	___flmul@prod+2,w
  2594     0797  00B7               	movwf	??___flmul+2
  2595     0798  0844               	movf	___flmul@prod+3,w
  2596     0799  00B8               	movwf	??___flmul+3
  2597     079A  3001               	movlw	1
  2598     079B  00B9               	movwf	??___flmul+4
  2599     079C                     u2635:
  2600     079C  37B8               	asrf	??___flmul+3,f
  2601     079D  0CB7               	rrf	??___flmul+2,f
  2602     079E  0CB6               	rrf	??___flmul+1,f
  2603     079F  0CB5               	rrf	??___flmul,f
  2604     07A0                     u2630:
  2605     07A0  0BB9               	decfsz	??___flmul+4,f
  2606     07A1  2F9C               	goto	u2635
  2607     07A2  0838               	movf	??___flmul+3,w
  2608     07A3  00C4               	movwf	___flmul@prod+3
  2609     07A4  0837               	movf	??___flmul+2,w
  2610     07A5  00C3               	movwf	___flmul@prod+2
  2611     07A6  0836               	movf	??___flmul+1,w
  2612     07A7  00C2               	movwf	___flmul@prod+1
  2613     07A8  0835               	movf	??___flmul,w
  2614     07A9  00C1               	movwf	___flmul@prod
  2615     07AA                     l2153:
  2616     07AA  3001               	movlw	1
  2617     07AB  07C5               	addwf	___flmul@temp,f
  2618     07AC  3000               	movlw	0
  2619     07AD  3DC6               	addwfc	___flmul@temp+1,f
  2620     07AE                     l2155:
  2621     07AE  0846               	movf	___flmul@temp+1,w
  2622     07AF  3A80               	xorlw	128
  2623     07B0  00B5               	movwf	??___flmul
  2624     07B1  3080               	movlw	128
  2625     07B2  0235               	subwf	??___flmul,w
  2626     07B3  1D03               	skipz
  2627     07B4  2FB7               	goto	u2645
  2628     07B5  30FF               	movlw	255
  2629     07B6  0245               	subwf	___flmul@temp,w
  2630     07B7                     u2645:
  2631     07B7  1C03               	skipc
  2632     07B8  2FBA               	goto	u2641
  2633     07B9  2FBB               	goto	u2640
  2634     07BA                     u2641:
  2635     07BA  2FC5               	goto	l2159
  2636     07BB                     u2640:
  2637     07BB                     l2157:
  2638     07BB  307F               	movlw	127
  2639     07BC  0020               	movlb	0	; select bank0
  2640     07BD  00C4               	movwf	___flmul@prod+3
  2641     07BE  3080               	movlw	128
  2642     07BF  00C3               	movwf	___flmul@prod+2
  2643     07C0  3000               	movlw	0
  2644     07C1  00C2               	movwf	___flmul@prod+1
  2645     07C2  3000               	movlw	0
  2646     07C3  00C1               	movwf	___flmul@prod
  2647     07C4  2FF0               	goto	l692
  2648     07C5                     l2159:
  2649     07C5  0020               	movlb	0	; select bank0
  2650     07C6  0846               	movf	___flmul@temp+1,w
  2651     07C7  3A80               	xorlw	128
  2652     07C8  00B5               	movwf	??___flmul
  2653     07C9  3080               	movlw	128
  2654     07CA  0235               	subwf	??___flmul,w
  2655     07CB  1D03               	skipz
  2656     07CC  2FCF               	goto	u2655
  2657     07CD  3001               	movlw	1
  2658     07CE  0245               	subwf	___flmul@temp,w
  2659     07CF                     u2655:
  2660     07CF  1803               	skipnc
  2661     07D0  2FD2               	goto	u2651
  2662     07D1  2FD3               	goto	u2650
  2663     07D2                     u2651:
  2664     07D2  2FDE               	goto	l2165
  2665     07D3                     u2650:
  2666     07D3                     l2161:
  2667     07D3  3000               	movlw	0
  2668     07D4  0020               	movlb	0	; select bank0
  2669     07D5  00C4               	movwf	___flmul@prod+3
  2670     07D6  3000               	movlw	0
  2671     07D7  00C3               	movwf	___flmul@prod+2
  2672     07D8  3000               	movlw	0
  2673     07D9  00C2               	movwf	___flmul@prod+1
  2674     07DA  3000               	movlw	0
  2675     07DB  00C1               	movwf	___flmul@prod
  2676     07DC                     l2163:
  2677     07DC  01BA               	clrf	___flmul@sign
  2678     07DD  2FF0               	goto	l692
  2679     07DE                     l2165:
  2680     07DE  0020               	movlb	0	; select bank0
  2681     07DF  0845               	movf	___flmul@temp,w
  2682     07E0  00C0               	movwf	___flmul@bexp
  2683     07E1  30FF               	movlw	255
  2684     07E2  05C1               	andwf	___flmul@prod,f
  2685     07E3  30FF               	movlw	255
  2686     07E4  05C2               	andwf	___flmul@prod+1,f
  2687     07E5  307F               	movlw	127
  2688     07E6  05C3               	andwf	___flmul@prod+2,f
  2689     07E7  3000               	movlw	0
  2690     07E8  05C4               	andwf	___flmul@prod+3,f
  2691     07E9                     l2167:
  2692     07E9  1C40               	btfss	___flmul@bexp,0
  2693     07EA  2FEC               	goto	u2661
  2694     07EB  2FED               	goto	u2660
  2695     07EC                     u2661:
  2696     07EC  2FEE               	goto	l2171
  2697     07ED                     u2660:
  2698     07ED                     l2169:
  2699     07ED  17C3               	bsf	___flmul@prod+2,7
  2700     07EE                     l2171:
  2701     07EE  3640               	lsrf	___flmul@bexp,w
  2702     07EF  00C4               	movwf	___flmul@prod+3
  2703     07F0                     l692:
  2704     07F0  083A               	movf	___flmul@sign,w
  2705     07F1  00B5               	movwf	??___flmul
  2706     07F2  0835               	movf	??___flmul,w
  2707     07F3  04C4               	iorwf	___flmul@prod+3,f
  2708     07F4                     l2173:
  2709     07F4  0844               	movf	___flmul@prod+3,w
  2710     07F5  00B0               	movwf	?___flmul+3
  2711     07F6  0843               	movf	___flmul@prod+2,w
  2712     07F7  00AF               	movwf	?___flmul+2
  2713     07F8  0842               	movf	___flmul@prod+1,w
  2714     07F9  00AE               	movwf	?___flmul+1
  2715     07FA  0841               	movf	___flmul@prod,w
  2716     07FB  00AD               	movwf	?___flmul
  2717     07FC                     l680:
  2718     07FC  0008               	return
  2719     07FD                     __end_of___flmul:
  2720                           
  2721                           	psect	text5
  2722     0EAD                     __ptext5:	
  2723 ;; *************** function __Umul8_16 *****************
  2724 ;; Defined at:
  2725 ;;		line 4 in file "D:\Program Files\Microchip\xc8\v2.40\pic\sources\c99\common\Umul8_16.c"
  2726 ;; Parameters:    Size  Location     Type
  2727 ;;  multiplier      1    wreg     unsigned char 
  2728 ;;  multiplicand    1    0[COMMON] unsigned char 
  2729 ;; Auto vars:     Size  Location     Type
  2730 ;;  multiplier      1    8[COMMON] unsigned char 
  2731 ;;  word_mpld       2    6[COMMON] unsigned int 
  2732 ;;  product         2    4[COMMON] unsigned int 
  2733 ;; Return value:  Size  Location     Type
  2734 ;;                  2    0[COMMON] unsigned int 
  2735 ;; Registers used:
  2736 ;;		wreg, status,2, status,0
  2737 ;; Tracked objects:
  2738 ;;		On entry : 0/0
  2739 ;;		On exit  : 0/0
  2740 ;;		Unchanged: 0/0
  2741 ;; Data sizes:     COMMON   BANK0   BANK1   BANK2   BANK3   BANK4   BANK5   BANK6   BANK7   BANK8   BANK9  BANK10  BANK1
      +1  BANK12  BANK13  BANK14  BANK15  BANK16  BANK17  BANK18  BANK19  BANK20  BANK21  BANK22  BANK23  BANK24  BANK25
  2742 ;;      Params:         2       0       0       0       0       0       0       0       0       0       0       0       
      +0       0       0       0       0       0       0       0       0       0       0       0       0       0       0
  2743 ;;      Locals:         5       0       0       0       0       0       0       0       0       0       0       0       
      +0       0       0       0       0       0       0       0       0       0       0       0       0       0       0
  2744 ;;      Temps:          2       0       0       0       0       0       0       0       0       0       0       0       
      +0       0       0       0       0       0       0       0       0       0       0       0       0       0       0
  2745 ;;      Totals:         9       0       0       0       0       0       0       0       0       0       0       0       
      +0       0       0       0       0       0       0       0       0       0       0       0       0       0       0
  2746 ;;Total ram usage:        9 bytes
  2747 ;; Hardware stack levels used: 1
  2748 ;; This function calls:
  2749 ;;		Nothing
  2750 ;; This function is called by:
  2751 ;;		___flmul
  2752 ;; This function uses a non-reentrant model
  2753 ;;
  2754                           
  2755     0EAD                     __Umul8_16:	
  2756                           ;psect for function __Umul8_16
  2757                           
  2758                           
  2759                           ;incstack = 0
  2760                           ; Regs used in __Umul8_16: [wreg+status,2+status,0]
  2761                           ;__Umul8_16@multiplier stored from wreg
  2762     0EAD  00F8               	movwf	__Umul8_16@multiplier
  2763     0EAE                     l1633:
  2764     0EAE  01F4               	clrf	__Umul8_16@product
  2765     0EAF  01F5               	clrf	__Umul8_16@product+1
  2766     0EB0                     l1635:
  2767     0EB0  0870               	movf	__Umul8_16@multiplicand,w
  2768     0EB1  00F2               	movwf	??__Umul8_16
  2769     0EB2  01F3               	clrf	??__Umul8_16+1
  2770     0EB3  0872               	movf	??__Umul8_16,w
  2771     0EB4  00F6               	movwf	__Umul8_16@word_mpld
  2772     0EB5  0873               	movf	??__Umul8_16+1,w
  2773     0EB6  00F7               	movwf	__Umul8_16@word_mpld+1
  2774     0EB7                     l1637:
  2775     0EB7  1C78               	btfss	__Umul8_16@multiplier,0
  2776     0EB8  2EBA               	goto	u1511
  2777     0EB9  2EBB               	goto	u1510
  2778     0EBA                     u1511:
  2779     0EBA  2EBF               	goto	l699
  2780     0EBB                     u1510:
  2781     0EBB                     l1639:
  2782     0EBB  0876               	movf	__Umul8_16@word_mpld,w
  2783     0EBC  07F4               	addwf	__Umul8_16@product,f
  2784     0EBD  0877               	movf	__Umul8_16@word_mpld+1,w
  2785     0EBE  3DF5               	addwfc	__Umul8_16@product+1,f
  2786     0EBF                     l699:
  2787     0EBF  3001               	movlw	1
  2788     0EC0                     u1525:
  2789     0EC0  35F6               	lslf	__Umul8_16@word_mpld,f
  2790     0EC1  0DF7               	rlf	__Umul8_16@word_mpld+1,f
  2791     0EC2  0B89               	decfsz	9,f
  2792     0EC3  2EC0               	goto	u1525
  2793     0EC4  1003               	clrc
  2794     0EC5  0CF8               	rrf	__Umul8_16@multiplier,f
  2795     0EC6                     l1641:
  2796     0EC6  0878               	movf	__Umul8_16@multiplier,w
  2797     0EC7  1D03               	btfss	3,2
  2798     0EC8  2ECA               	goto	u1531
  2799     0EC9  2ECB               	goto	u1530
  2800     0ECA                     u1531:
  2801     0ECA  2EB7               	goto	l1637
  2802     0ECB                     u1530:
  2803     0ECB                     l1643:
  2804     0ECB  0875               	movf	__Umul8_16@product+1,w
  2805     0ECC  00F1               	movwf	?__Umul8_16+1
  2806     0ECD  0874               	movf	__Umul8_16@product,w
  2807     0ECE  00F0               	movwf	?__Umul8_16
  2808     0ECF                     l701:
  2809     0ECF  0008               	return
  2810     0ED0                     __end_of__Umul8_16:
  2811                           
  2812                           	psect	text6
  2813     0ED0                     __ptext6:	
  2814 ;; *************** function ___flge *****************
  2815 ;; Defined at:
  2816 ;;		line 4 in file "D:\Program Files\Microchip\xc8\v2.40\pic\sources\c99\common\flge.c"
  2817 ;; Parameters:    Size  Location     Type
  2818 ;;  ff1             4    0[COMMON] unsigned int 
  2819 ;;  ff2             4    4[COMMON] unsigned int 
  2820 ;; Auto vars:     Size  Location     Type
  2821 ;;		None
  2822 ;; Return value:  Size  Location     Type
  2823 ;;		None               void
  2824 ;; Registers used:
  2825 ;;		wreg, status,2, status,0
  2826 ;; Tracked objects:
  2827 ;;		On entry : 0/0
  2828 ;;		On exit  : 0/0
  2829 ;;		Unchanged: 0/0
  2830 ;; Data sizes:     COMMON   BANK0   BANK1   BANK2   BANK3   BANK4   BANK5   BANK6   BANK7   BANK8   BANK9  BANK10  BANK1
      +1  BANK12  BANK13  BANK14  BANK15  BANK16  BANK17  BANK18  BANK19  BANK20  BANK21  BANK22  BANK23  BANK24  BANK25
  2831 ;;      Params:         8       0       0       0       0       0       0       0       0       0       0       0       
      +0       0       0       0       0       0       0       0       0       0       0       0       0       0       0
  2832 ;;      Locals:         0       0       0       0       0       0       0       0       0       0       0       0       
      +0       0       0       0       0       0       0       0       0       0       0       0       0       0       0
  2833 ;;      Temps:          4       0       0       0       0       0       0       0       0       0       0       0       
      +0       0       0       0       0       0       0       0       0       0       0       0       0       0       0
  2834 ;;      Totals:        12       0       0       0       0       0       0       0       0       0       0       0       
      +0       0       0       0       0       0       0       0       0       0       0       0       0       0       0
  2835 ;;Total ram usage:       12 bytes
  2836 ;; Hardware stack levels used: 1
  2837 ;; This function calls:
  2838 ;;		Nothing
  2839 ;; This function is called by:
  2840 ;;		_Servo5
  2841 ;; This function uses a non-reentrant model
  2842 ;;
  2843                           
  2844     0ED0                     ___flge:	
  2845                           ;psect for function ___flge
  2846                           
  2847     0ED0                     l1647:	
  2848                           ;incstack = 0
  2849                           ; Regs used in ___flge: [wreg+status,2+status,0]
  2850                           
  2851     0ED0  3000               	movlw	0
  2852     0ED1  0570               	andwf	___flge@ff1,w
  2853     0ED2  00F8               	movwf	??___flge
  2854     0ED3  3000               	movlw	0
  2855     0ED4  0571               	andwf	___flge@ff1+1,w
  2856     0ED5  00F9               	movwf	??___flge+1
  2857     0ED6  3080               	movlw	128
  2858     0ED7  0572               	andwf	___flge@ff1+2,w
  2859     0ED8  00FA               	movwf	??___flge+2
  2860     0ED9  307F               	movlw	127
  2861     0EDA  0573               	andwf	___flge@ff1+3,w
  2862     0EDB  00FB               	movwf	??___flge+3
  2863     0EDC  087B               	movf	??___flge+3,w
  2864     0EDD  047A               	iorwf	??___flge+2,w
  2865     0EDE  0479               	iorwf	??___flge+1,w
  2866     0EDF  0478               	iorwf	??___flge,w
  2867     0EE0  1D03               	skipz
  2868     0EE1  2EE3               	goto	u1541
  2869     0EE2  2EE4               	goto	u1540
  2870     0EE3                     u1541:
  2871     0EE3  2EEC               	goto	l461
  2872     0EE4                     u1540:
  2873     0EE4                     l1649:
  2874     0EE4  3000               	movlw	0
  2875     0EE5  00F3               	movwf	___flge@ff1+3
  2876     0EE6  3000               	movlw	0
  2877     0EE7  00F2               	movwf	___flge@ff1+2
  2878     0EE8  3000               	movlw	0
  2879     0EE9  00F1               	movwf	___flge@ff1+1
  2880     0EEA  3000               	movlw	0
  2881     0EEB  00F0               	movwf	___flge@ff1
  2882     0EEC                     l461:
  2883     0EEC  3000               	movlw	0
  2884     0EED  0574               	andwf	___flge@ff2,w
  2885     0EEE  00F8               	movwf	??___flge
  2886     0EEF  3000               	movlw	0
  2887     0EF0  0575               	andwf	___flge@ff2+1,w
  2888     0EF1  00F9               	movwf	??___flge+1
  2889     0EF2  3080               	movlw	128
  2890     0EF3  0576               	andwf	___flge@ff2+2,w
  2891     0EF4  00FA               	movwf	??___flge+2
  2892     0EF5  307F               	movlw	127
  2893     0EF6  0577               	andwf	___flge@ff2+3,w
  2894     0EF7  00FB               	movwf	??___flge+3
  2895     0EF8  087B               	movf	??___flge+3,w
  2896     0EF9  047A               	iorwf	??___flge+2,w
  2897     0EFA  0479               	iorwf	??___flge+1,w
  2898     0EFB  0478               	iorwf	??___flge,w
  2899     0EFC  1D03               	skipz
  2900     0EFD  2EFF               	goto	u1551
  2901     0EFE  2F00               	goto	u1550
  2902     0EFF                     u1551:
  2903     0EFF  2F08               	goto	l1653
  2904     0F00                     u1550:
  2905     0F00                     l1651:
  2906     0F00  3000               	movlw	0
  2907     0F01  00F7               	movwf	___flge@ff2+3
  2908     0F02  3000               	movlw	0
  2909     0F03  00F6               	movwf	___flge@ff2+2
  2910     0F04  3000               	movlw	0
  2911     0F05  00F5               	movwf	___flge@ff2+1
  2912     0F06  3000               	movlw	0
  2913     0F07  00F4               	movwf	___flge@ff2
  2914     0F08                     l1653:
  2915     0F08  1FF3               	btfss	___flge@ff1+3,7
  2916     0F09  2F0B               	goto	u1561
  2917     0F0A  2F0C               	goto	u1560
  2918     0F0B                     u1561:
  2919     0F0B  2F24               	goto	l1657
  2920     0F0C                     u1560:
  2921     0F0C                     l1655:
  2922     0F0C  3000               	movlw	0
  2923     0F0D  00F8               	movwf	??___flge
  2924     0F0E  3000               	movlw	0
  2925     0F0F  00F9               	movwf	??___flge+1
  2926     0F10  3000               	movlw	0
  2927     0F11  00FA               	movwf	??___flge+2
  2928     0F12  3080               	movlw	128
  2929     0F13  00FB               	movwf	??___flge+3
  2930     0F14  0870               	movf	___flge@ff1,w
  2931     0F15  02F8               	subwf	??___flge,f
  2932     0F16  0871               	movf	___flge@ff1+1,w
  2933     0F17  3BF9               	subwfb	??___flge+1,f
  2934     0F18  0872               	movf	___flge@ff1+2,w
  2935     0F19  3BFA               	subwfb	??___flge+2,f
  2936     0F1A  0873               	movf	___flge@ff1+3,w
  2937     0F1B  3BFB               	subwfb	??___flge+3,f
  2938     0F1C  087B               	movf	??___flge+3,w
  2939     0F1D  00F3               	movwf	___flge@ff1+3
  2940     0F1E  087A               	movf	??___flge+2,w
  2941     0F1F  00F2               	movwf	___flge@ff1+2
  2942     0F20  0879               	movf	??___flge+1,w
  2943     0F21  00F1               	movwf	___flge@ff1+1
  2944     0F22  0878               	movf	??___flge,w
  2945     0F23  00F0               	movwf	___flge@ff1
  2946     0F24                     l1657:
  2947     0F24  1FF7               	btfss	___flge@ff2+3,7
  2948     0F25  2F27               	goto	u1571
  2949     0F26  2F28               	goto	u1570
  2950     0F27                     u1571:
  2951     0F27  2F40               	goto	l464
  2952     0F28                     u1570:
  2953     0F28                     l1659:
  2954     0F28  3000               	movlw	0
  2955     0F29  00F8               	movwf	??___flge
  2956     0F2A  3000               	movlw	0
  2957     0F2B  00F9               	movwf	??___flge+1
  2958     0F2C  3000               	movlw	0
  2959     0F2D  00FA               	movwf	??___flge+2
  2960     0F2E  3080               	movlw	128
  2961     0F2F  00FB               	movwf	??___flge+3
  2962     0F30  0874               	movf	___flge@ff2,w
  2963     0F31  02F8               	subwf	??___flge,f
  2964     0F32  0875               	movf	___flge@ff2+1,w
  2965     0F33  3BF9               	subwfb	??___flge+1,f
  2966     0F34  0876               	movf	___flge@ff2+2,w
  2967     0F35  3BFA               	subwfb	??___flge+2,f
  2968     0F36  0877               	movf	___flge@ff2+3,w
  2969     0F37  3BFB               	subwfb	??___flge+3,f
  2970     0F38  087B               	movf	??___flge+3,w
  2971     0F39  00F7               	movwf	___flge@ff2+3
  2972     0F3A  087A               	movf	??___flge+2,w
  2973     0F3B  00F6               	movwf	___flge@ff2+2
  2974     0F3C  0879               	movf	??___flge+1,w
  2975     0F3D  00F5               	movwf	___flge@ff2+1
  2976     0F3E  0878               	movf	??___flge,w
  2977     0F3F  00F4               	movwf	___flge@ff2
  2978     0F40                     l464:
  2979     0F40  3080               	movlw	128
  2980     0F41  06F3               	xorwf	___flge@ff1+3,f
  2981     0F42  3080               	movlw	128
  2982     0F43  06F7               	xorwf	___flge@ff2+3,f
  2983     0F44  0877               	movf	___flge@ff2+3,w
  2984     0F45  0273               	subwf	___flge@ff1+3,w
  2985     0F46  1D03               	skipz
  2986     0F47  2F52               	goto	u1585
  2987     0F48  0876               	movf	___flge@ff2+2,w
  2988     0F49  0272               	subwf	___flge@ff1+2,w
  2989     0F4A  1D03               	skipz
  2990     0F4B  2F52               	goto	u1585
  2991     0F4C  0875               	movf	___flge@ff2+1,w
  2992     0F4D  0271               	subwf	___flge@ff1+1,w
  2993     0F4E  1D03               	skipz
  2994     0F4F  2F52               	goto	u1585
  2995     0F50  0874               	movf	___flge@ff2,w
  2996     0F51  0270               	subwf	___flge@ff1,w
  2997     0F52                     u1585:
  2998     0F52  1803               	skipnc
  2999     0F53  2F55               	goto	u1581
  3000     0F54  2F56               	goto	u1580
  3001     0F55                     u1581:
  3002     0F55  2F58               	goto	l1663
  3003     0F56                     u1580:
  3004     0F56                     l1661:
  3005     0F56  1003               	clrc
  3006     0F57  2F59               	goto	l469
  3007     0F58                     l1663:
  3008     0F58  1403               	setc
  3009     0F59                     l469:
  3010     0F59  0008               	return
  3011     0F5A                     __end_of___flge:
  3012                           
  3013                           	psect	text7
  3014     0210                     __ptext7:	
  3015 ;; *************** function ___fldiv *****************
  3016 ;; Defined at:
  3017 ;;		line 8 in file "D:\Program Files\Microchip\xc8\v2.40\pic\sources\c99\common\sprcdiv.c"
  3018 ;; Parameters:    Size  Location     Type
  3019 ;;  a               4    0[COMMON] unsigned int 
  3020 ;;  b               4    4[COMMON] unsigned int 
  3021 ;; Auto vars:     Size  Location     Type
  3022 ;;  grs             4    7[BANK0 ] unsigned long 
  3023 ;;  rem             4    0[BANK0 ] unsigned long 
  3024 ;;  new_exp         2    5[BANK0 ] int 
  3025 ;;  aexp            1   12[BANK0 ] unsigned char 
  3026 ;;  bexp            1   11[BANK0 ] unsigned char 
  3027 ;;  sign            1    4[BANK0 ] unsigned char 
  3028 ;; Return value:  Size  Location     Type
  3029 ;;                  4    0[COMMON] unsigned char 
  3030 ;; Registers used:
  3031 ;;		wreg, status,2, status,0
  3032 ;; Tracked objects:
  3033 ;;		On entry : 0/0
  3034 ;;		On exit  : 0/0
  3035 ;;		Unchanged: 0/0
  3036 ;; Data sizes:     COMMON   BANK0   BANK1   BANK2   BANK3   BANK4   BANK5   BANK6   BANK7   BANK8   BANK9  BANK10  BANK1
      +1  BANK12  BANK13  BANK14  BANK15  BANK16  BANK17  BANK18  BANK19  BANK20  BANK21  BANK22  BANK23  BANK24  BANK25
  3037 ;;      Params:         8       0       0       0       0       0       0       0       0       0       0       0       
      +0       0       0       0       0       0       0       0       0       0       0       0       0       0       0
  3038 ;;      Locals:         0      13       0       0       0       0       0       0       0       0       0       0       
      +0       0       0       0       0       0       0       0       0       0       0       0       0       0       0
  3039 ;;      Temps:          5       0       0       0       0       0       0       0       0       0       0       0       
      +0       0       0       0       0       0       0       0       0       0       0       0       0       0       0
  3040 ;;      Totals:        13      13       0       0       0       0       0       0       0       0       0       0       
      +0       0       0       0       0       0       0       0       0       0       0       0       0       0       0
  3041 ;;Total ram usage:       26 bytes
  3042 ;; Hardware stack levels used: 1
  3043 ;; This function calls:
  3044 ;;		Nothing
  3045 ;; This function is called by:
  3046 ;;		_Servo5
  3047 ;; This function uses a non-reentrant model
  3048 ;;
  3049                           
  3050     0210                     ___fldiv:	
  3051                           ;psect for function ___fldiv
  3052                           
  3053     0210                     l1897:	
  3054                           ;incstack = 0
  3055                           ; Regs used in ___fldiv: [wreg+status,2+status,0]
  3056                           
  3057     0210  0877               	movf	___fldiv@b+3,w
  3058     0211  3980               	andlw	128
  3059     0212  0020               	movlb	0	; select bank0
  3060     0213  00A4               	movwf	___fldiv@sign
  3061     0214                     l1899:
  3062     0214  3577               	lslf	___fldiv@b+3,w
  3063     0215  00AB               	movwf	___fldiv@bexp
  3064     0216                     l1901:
  3065     0216  1FF6               	btfss	___fldiv@b+2,7
  3066     0217  2A19               	goto	u2121
  3067     0218  2A1A               	goto	u2120
  3068     0219                     u2121:
  3069     0219  2A1B               	goto	l1905
  3070     021A                     u2120:
  3071     021A                     l1903:
  3072     021A  142B               	bsf	___fldiv@bexp,0
  3073     021B                     l1905:
  3074     021B  082B               	movf	___fldiv@bexp,w
  3075     021C  1903               	btfsc	3,2
  3076     021D  2A1F               	goto	u2131
  3077     021E  2A20               	goto	u2130
  3078     021F                     u2131:
  3079     021F  2A30               	goto	l1915
  3080     0220                     u2130:
  3081     0220                     l1907:
  3082     0220  0A2B               	incf	___fldiv@bexp,w
  3083     0221  1D03               	btfss	3,2
  3084     0222  2A24               	goto	u2141
  3085     0223  2A25               	goto	u2140
  3086     0224                     u2141:
  3087     0224  2A2D               	goto	l1911
  3088     0225                     u2140:
  3089     0225                     l1909:
  3090     0225  3000               	movlw	0
  3091     0226  00F7               	movwf	___fldiv@b+3
  3092     0227  3000               	movlw	0
  3093     0228  00F6               	movwf	___fldiv@b+2
  3094     0229  3000               	movlw	0
  3095     022A  00F5               	movwf	___fldiv@b+1
  3096     022B  3000               	movlw	0
  3097     022C  00F4               	movwf	___fldiv@b
  3098     022D                     l1911:
  3099     022D  17F6               	bsf	___fldiv@b+2,7
  3100     022E                     l1913:
  3101     022E  01F7               	clrf	___fldiv@b+3
  3102     022F  2A38               	goto	l1917
  3103     0230                     l1915:
  3104     0230  3000               	movlw	0
  3105     0231  00F7               	movwf	___fldiv@b+3
  3106     0232  3000               	movlw	0
  3107     0233  00F6               	movwf	___fldiv@b+2
  3108     0234  3000               	movlw	0
  3109     0235  00F5               	movwf	___fldiv@b+1
  3110     0236  3000               	movlw	0
  3111     0237  00F4               	movwf	___fldiv@b
  3112     0238                     l1917:
  3113     0238  0873               	movf	___fldiv@a+3,w
  3114     0239  3980               	andlw	128
  3115     023A  00F8               	movwf	??___fldiv
  3116     023B  0878               	movf	??___fldiv,w
  3117     023C  06A4               	xorwf	___fldiv@sign,f
  3118     023D                     l1919:
  3119     023D  3573               	lslf	___fldiv@a+3,w
  3120     023E  00AC               	movwf	___fldiv@aexp
  3121     023F                     l1921:
  3122     023F  1FF2               	btfss	___fldiv@a+2,7
  3123     0240  2A42               	goto	u2151
  3124     0241  2A43               	goto	u2150
  3125     0242                     u2151:
  3126     0242  2A44               	goto	l1925
  3127     0243                     u2150:
  3128     0243                     l1923:
  3129     0243  142C               	bsf	___fldiv@aexp,0
  3130     0244                     l1925:
  3131     0244  082C               	movf	___fldiv@aexp,w
  3132     0245  1903               	btfsc	3,2
  3133     0246  2A48               	goto	u2161
  3134     0247  2A49               	goto	u2160
  3135     0248                     u2161:
  3136     0248  2A59               	goto	l1935
  3137     0249                     u2160:
  3138     0249                     l1927:
  3139     0249  0A2C               	incf	___fldiv@aexp,w
  3140     024A  1D03               	btfss	3,2
  3141     024B  2A4D               	goto	u2171
  3142     024C  2A4E               	goto	u2170
  3143     024D                     u2171:
  3144     024D  2A56               	goto	l1931
  3145     024E                     u2170:
  3146     024E                     l1929:
  3147     024E  3000               	movlw	0
  3148     024F  00F3               	movwf	___fldiv@a+3
  3149     0250  3000               	movlw	0
  3150     0251  00F2               	movwf	___fldiv@a+2
  3151     0252  3000               	movlw	0
  3152     0253  00F1               	movwf	___fldiv@a+1
  3153     0254  3000               	movlw	0
  3154     0255  00F0               	movwf	___fldiv@a
  3155     0256                     l1931:
  3156     0256  17F2               	bsf	___fldiv@a+2,7
  3157     0257                     l1933:
  3158     0257  01F3               	clrf	___fldiv@a+3
  3159     0258  2A61               	goto	l640
  3160     0259                     l1935:
  3161     0259  3000               	movlw	0
  3162     025A  00F3               	movwf	___fldiv@a+3
  3163     025B  3000               	movlw	0
  3164     025C  00F2               	movwf	___fldiv@a+2
  3165     025D  3000               	movlw	0
  3166     025E  00F1               	movwf	___fldiv@a+1
  3167     025F  3000               	movlw	0
  3168     0260  00F0               	movwf	___fldiv@a
  3169     0261                     l640:
  3170     0261  0873               	movf	___fldiv@a+3,w
  3171     0262  0472               	iorwf	___fldiv@a+2,w
  3172     0263  0471               	iorwf	___fldiv@a+1,w
  3173     0264  0470               	iorwf	___fldiv@a,w
  3174     0265  1D03               	skipz
  3175     0266  2A68               	goto	u2181
  3176     0267  2A69               	goto	u2180
  3177     0268                     u2181:
  3178     0268  2A82               	goto	l1945
  3179     0269                     u2180:
  3180     0269                     l1937:
  3181     0269  3000               	movlw	0
  3182     026A  00F7               	movwf	___fldiv@b+3
  3183     026B  3000               	movlw	0
  3184     026C  00F6               	movwf	___fldiv@b+2
  3185     026D  3000               	movlw	0
  3186     026E  00F5               	movwf	___fldiv@b+1
  3187     026F  3000               	movlw	0
  3188     0270  00F4               	movwf	___fldiv@b
  3189     0271  3080               	movlw	128
  3190     0272  04F6               	iorwf	___fldiv@b+2,f
  3191     0273  307F               	movlw	127
  3192     0274  04F7               	iorwf	___fldiv@b+3,f
  3193     0275                     l1939:
  3194     0275  0824               	movf	___fldiv@sign,w
  3195     0276  00F8               	movwf	??___fldiv
  3196     0277  0878               	movf	??___fldiv,w
  3197     0278  04F7               	iorwf	___fldiv@b+3,f
  3198     0279                     l1941:
  3199     0279  0877               	movf	___fldiv@b+3,w
  3200     027A  00F3               	movwf	?___fldiv+3
  3201     027B  0876               	movf	___fldiv@b+2,w
  3202     027C  00F2               	movwf	?___fldiv+2
  3203     027D  0875               	movf	___fldiv@b+1,w
  3204     027E  00F1               	movwf	?___fldiv+1
  3205     027F  0874               	movf	___fldiv@b,w
  3206     0280  00F0               	movwf	?___fldiv
  3207     0281  2BB9               	goto	l642
  3208     0282                     l1945:
  3209     0282  082B               	movf	___fldiv@bexp,w
  3210     0283  1D03               	btfss	3,2
  3211     0284  2A86               	goto	u2191
  3212     0285  2A87               	goto	u2190
  3213     0286                     u2191:
  3214     0286  2A90               	goto	l1951
  3215     0287                     u2190:
  3216     0287                     l1947:
  3217     0287  3000               	movlw	0
  3218     0288  00F3               	movwf	?___fldiv+3
  3219     0289  3000               	movlw	0
  3220     028A  00F2               	movwf	?___fldiv+2
  3221     028B  3000               	movlw	0
  3222     028C  00F1               	movwf	?___fldiv+1
  3223     028D  3000               	movlw	0
  3224     028E  00F0               	movwf	?___fldiv
  3225     028F  2BB9               	goto	l642
  3226     0290                     l1951:
  3227     0290  082B               	movf	___fldiv@bexp,w
  3228     0291  00F8               	movwf	??___fldiv
  3229     0292  01F9               	clrf	??___fldiv+1
  3230     0293  0879               	movf	??___fldiv+1,w
  3231     0294  00FB               	movwf	??___fldiv+3
  3232     0295  082C               	movf	___fldiv@aexp,w
  3233     0296  0278               	subwf	??___fldiv,w
  3234     0297  00FA               	movwf	??___fldiv+2
  3235     0298  1C03               	skipc
  3236     0299  03FB               	decf	??___fldiv+3,f
  3237     029A  087A               	movf	??___fldiv+2,w
  3238     029B  3E7F               	addlw	127
  3239     029C  00A5               	movwf	___fldiv@new_exp
  3240     029D  3000               	movlw	0
  3241     029E  3D7B               	addwfc	??___fldiv+3,w
  3242     029F  00A6               	movwf	___fldiv@new_exp+1
  3243     02A0                     l1953:
  3244     02A0  0877               	movf	___fldiv@b+3,w
  3245     02A1  00A3               	movwf	___fldiv@rem+3
  3246     02A2  0876               	movf	___fldiv@b+2,w
  3247     02A3  00A2               	movwf	___fldiv@rem+2
  3248     02A4  0875               	movf	___fldiv@b+1,w
  3249     02A5  00A1               	movwf	___fldiv@rem+1
  3250     02A6  0874               	movf	___fldiv@b,w
  3251     02A7  00A0               	movwf	___fldiv@rem
  3252     02A8                     l1955:
  3253     02A8  3000               	movlw	0
  3254     02A9  00F7               	movwf	___fldiv@b+3
  3255     02AA  3000               	movlw	0
  3256     02AB  00F6               	movwf	___fldiv@b+2
  3257     02AC  3000               	movlw	0
  3258     02AD  00F5               	movwf	___fldiv@b+1
  3259     02AE  3000               	movlw	0
  3260     02AF  00F4               	movwf	___fldiv@b
  3261     02B0                     l1957:
  3262     02B0  3000               	movlw	0
  3263     02B1  00AA               	movwf	___fldiv@grs+3
  3264     02B2  3000               	movlw	0
  3265     02B3  00A9               	movwf	___fldiv@grs+2
  3266     02B4  3000               	movlw	0
  3267     02B5  00A8               	movwf	___fldiv@grs+1
  3268     02B6  3000               	movlw	0
  3269     02B7  00A7               	movwf	___fldiv@grs
  3270     02B8                     l1959:
  3271     02B8  01AC               	clrf	___fldiv@aexp
  3272     02B9  2AF8               	goto	l1979
  3273     02BA                     l1961:
  3274     02BA  082C               	movf	___fldiv@aexp,w
  3275     02BB  1903               	btfsc	3,2
  3276     02BC  2ABE               	goto	u2201
  3277     02BD  2ABF               	goto	u2200
  3278     02BE                     u2201:
  3279     02BE  2AD9               	goto	l1971
  3280     02BF                     u2200:
  3281     02BF                     l1963:
  3282     02BF  3001               	movlw	1
  3283     02C0                     u2215:
  3284     02C0  35A0               	lslf	___fldiv@rem,f
  3285     02C1  0DA1               	rlf	___fldiv@rem+1,f
  3286     02C2  0DA2               	rlf	___fldiv@rem+2,f
  3287     02C3  0DA3               	rlf	___fldiv@rem+3,f
  3288     02C4  0B89               	decfsz	9,f
  3289     02C5  2AC0               	goto	u2215
  3290     02C6  3001               	movlw	1
  3291     02C7                     u2225:
  3292     02C7  35F4               	lslf	___fldiv@b,f
  3293     02C8  0DF5               	rlf	___fldiv@b+1,f
  3294     02C9  0DF6               	rlf	___fldiv@b+2,f
  3295     02CA  0DF7               	rlf	___fldiv@b+3,f
  3296     02CB  0B89               	decfsz	9,f
  3297     02CC  2AC7               	goto	u2225
  3298     02CD                     l1965:
  3299     02CD  1FAA               	btfss	___fldiv@grs+3,7
  3300     02CE  2AD0               	goto	u2231
  3301     02CF  2AD1               	goto	u2230
  3302     02D0                     u2231:
  3303     02D0  2AD2               	goto	l1969
  3304     02D1                     u2230:
  3305     02D1                     l1967:
  3306     02D1  1474               	bsf	___fldiv@b,0
  3307     02D2                     l1969:
  3308     02D2  3001               	movlw	1
  3309     02D3                     u2245:
  3310     02D3  35A7               	lslf	___fldiv@grs,f
  3311     02D4  0DA8               	rlf	___fldiv@grs+1,f
  3312     02D5  0DA9               	rlf	___fldiv@grs+2,f
  3313     02D6  0DAA               	rlf	___fldiv@grs+3,f
  3314     02D7  0B89               	decfsz	9,f
  3315     02D8  2AD3               	goto	u2245
  3316     02D9                     l1971:
  3317     02D9  0873               	movf	___fldiv@a+3,w
  3318     02DA  0223               	subwf	___fldiv@rem+3,w
  3319     02DB  1D03               	skipz
  3320     02DC  2AE7               	goto	u2255
  3321     02DD  0872               	movf	___fldiv@a+2,w
  3322     02DE  0222               	subwf	___fldiv@rem+2,w
  3323     02DF  1D03               	skipz
  3324     02E0  2AE7               	goto	u2255
  3325     02E1  0871               	movf	___fldiv@a+1,w
  3326     02E2  0221               	subwf	___fldiv@rem+1,w
  3327     02E3  1D03               	skipz
  3328     02E4  2AE7               	goto	u2255
  3329     02E5  0870               	movf	___fldiv@a,w
  3330     02E6  0220               	subwf	___fldiv@rem,w
  3331     02E7                     u2255:
  3332     02E7  1C03               	skipc
  3333     02E8  2AEA               	goto	u2251
  3334     02E9  2AEB               	goto	u2250
  3335     02EA                     u2251:
  3336     02EA  2AF4               	goto	l1977
  3337     02EB                     u2250:
  3338     02EB                     l1973:
  3339     02EB  172A               	bsf	___fldiv@grs+3,6
  3340     02EC                     l1975:
  3341     02EC  0870               	movf	___fldiv@a,w
  3342     02ED  02A0               	subwf	___fldiv@rem,f
  3343     02EE  0871               	movf	___fldiv@a+1,w
  3344     02EF  3BA1               	subwfb	___fldiv@rem+1,f
  3345     02F0  0872               	movf	___fldiv@a+2,w
  3346     02F1  3BA2               	subwfb	___fldiv@rem+2,f
  3347     02F2  0873               	movf	___fldiv@a+3,w
  3348     02F3  3BA3               	subwfb	___fldiv@rem+3,f
  3349     02F4                     l1977:
  3350     02F4  3001               	movlw	1
  3351     02F5  00F8               	movwf	??___fldiv
  3352     02F6  0878               	movf	??___fldiv,w
  3353     02F7  07AC               	addwf	___fldiv@aexp,f
  3354     02F8                     l1979:
  3355     02F8  301A               	movlw	26
  3356     02F9  022C               	subwf	___fldiv@aexp,w
  3357     02FA  1C03               	skipc
  3358     02FB  2AFD               	goto	u2261
  3359     02FC  2AFE               	goto	u2260
  3360     02FD                     u2261:
  3361     02FD  2ABA               	goto	l1961
  3362     02FE                     u2260:
  3363     02FE                     l1981:
  3364     02FE  0823               	movf	___fldiv@rem+3,w
  3365     02FF  0422               	iorwf	___fldiv@rem+2,w
  3366     0300  0421               	iorwf	___fldiv@rem+1,w
  3367     0301  0420               	iorwf	___fldiv@rem,w
  3368     0302  1903               	skipnz
  3369     0303  2B05               	goto	u2271
  3370     0304  2B06               	goto	u2270
  3371     0305                     u2271:
  3372     0305  2B1F               	goto	l1995
  3373     0306                     u2270:
  3374     0306                     l1983:
  3375     0306  1427               	bsf	___fldiv@grs,0
  3376     0307  2B1F               	goto	l1995
  3377     0308                     l1985:
  3378     0308  3001               	movlw	1
  3379     0309                     u2285:
  3380     0309  35F4               	lslf	___fldiv@b,f
  3381     030A  0DF5               	rlf	___fldiv@b+1,f
  3382     030B  0DF6               	rlf	___fldiv@b+2,f
  3383     030C  0DF7               	rlf	___fldiv@b+3,f
  3384     030D  0B89               	decfsz	9,f
  3385     030E  2B09               	goto	u2285
  3386     030F                     l1987:
  3387     030F  1FAA               	btfss	___fldiv@grs+3,7
  3388     0310  2B12               	goto	u2291
  3389     0311  2B13               	goto	u2290
  3390     0312                     u2291:
  3391     0312  2B14               	goto	l1991
  3392     0313                     u2290:
  3393     0313                     l1989:
  3394     0313  1474               	bsf	___fldiv@b,0
  3395     0314                     l1991:
  3396     0314  3001               	movlw	1
  3397     0315                     u2305:
  3398     0315  35A7               	lslf	___fldiv@grs,f
  3399     0316  0DA8               	rlf	___fldiv@grs+1,f
  3400     0317  0DA9               	rlf	___fldiv@grs+2,f
  3401     0318  0DAA               	rlf	___fldiv@grs+3,f
  3402     0319  0B89               	decfsz	9,f
  3403     031A  2B15               	goto	u2305
  3404     031B                     l1993:
  3405     031B  30FF               	movlw	255
  3406     031C  07A5               	addwf	___fldiv@new_exp,f
  3407     031D  30FF               	movlw	255
  3408     031E  3DA6               	addwfc	___fldiv@new_exp+1,f
  3409     031F                     l1995:
  3410     031F  1FF6               	btfss	___fldiv@b+2,7
  3411     0320  2B22               	goto	u2311
  3412     0321  2B23               	goto	u2310
  3413     0322                     u2311:
  3414     0322  2B08               	goto	l1985
  3415     0323                     u2310:
  3416     0323                     l1997:
  3417     0323  01AC               	clrf	___fldiv@aexp
  3418     0324                     l1999:
  3419     0324  1FAA               	btfss	___fldiv@grs+3,7
  3420     0325  2B27               	goto	u2321
  3421     0326  2B28               	goto	u2320
  3422     0327                     u2321:
  3423     0327  2B44               	goto	l2007
  3424     0328                     u2320:
  3425     0328                     l2001:
  3426     0328  30FF               	movlw	255
  3427     0329  0527               	andwf	___fldiv@grs,w
  3428     032A  00F8               	movwf	??___fldiv
  3429     032B  30FF               	movlw	255
  3430     032C  0528               	andwf	___fldiv@grs+1,w
  3431     032D  00F9               	movwf	??___fldiv+1
  3432     032E  30FF               	movlw	255
  3433     032F  0529               	andwf	___fldiv@grs+2,w
  3434     0330  00FA               	movwf	??___fldiv+2
  3435     0331  307F               	movlw	127
  3436     0332  052A               	andwf	___fldiv@grs+3,w
  3437     0333  00FB               	movwf	??___fldiv+3
  3438     0334  087B               	movf	??___fldiv+3,w
  3439     0335  047A               	iorwf	??___fldiv+2,w
  3440     0336  0479               	iorwf	??___fldiv+1,w
  3441     0337  0478               	iorwf	??___fldiv,w
  3442     0338  1903               	skipnz
  3443     0339  2B3B               	goto	u2331
  3444     033A  2B3C               	goto	u2330
  3445     033B                     u2331:
  3446     033B  2B3F               	goto	l656
  3447     033C                     u2330:
  3448     033C                     l2003:
  3449     033C  01AC               	clrf	___fldiv@aexp
  3450     033D  0AAC               	incf	___fldiv@aexp,f
  3451     033E  2B44               	goto	l2007
  3452     033F                     l656:
  3453     033F  1C74               	btfss	___fldiv@b,0
  3454     0340  2B42               	goto	u2341
  3455     0341  2B43               	goto	u2340
  3456     0342                     u2341:
  3457     0342  2B44               	goto	l2007
  3458     0343                     u2340:
  3459     0343  2B3C               	goto	l2003
  3460     0344                     l2007:
  3461     0344  082C               	movf	___fldiv@aexp,w
  3462     0345  1903               	btfsc	3,2
  3463     0346  2B48               	goto	u2351
  3464     0347  2B49               	goto	u2350
  3465     0348                     u2351:
  3466     0348  2B71               	goto	l2017
  3467     0349                     u2350:
  3468     0349                     l2009:
  3469     0349  3001               	movlw	1
  3470     034A  07F4               	addwf	___fldiv@b,f
  3471     034B  3000               	movlw	0
  3472     034C  3DF5               	addwfc	___fldiv@b+1,f
  3473     034D  3000               	movlw	0
  3474     034E  3DF6               	addwfc	___fldiv@b+2,f
  3475     034F  3000               	movlw	0
  3476     0350  3DF7               	addwfc	___fldiv@b+3,f
  3477     0351                     l2011:
  3478     0351  1C77               	btfss	___fldiv@b+3,0
  3479     0352  2B54               	goto	u2361
  3480     0353  2B55               	goto	u2360
  3481     0354                     u2361:
  3482     0354  2B71               	goto	l2017
  3483     0355                     u2360:
  3484     0355                     l2013:
  3485     0355  0874               	movf	___fldiv@b,w
  3486     0356  00F8               	movwf	??___fldiv
  3487     0357  0875               	movf	___fldiv@b+1,w
  3488     0358  00F9               	movwf	??___fldiv+1
  3489     0359  0876               	movf	___fldiv@b+2,w
  3490     035A  00FA               	movwf	??___fldiv+2
  3491     035B  0877               	movf	___fldiv@b+3,w
  3492     035C  00FB               	movwf	??___fldiv+3
  3493     035D  3001               	movlw	1
  3494     035E  00FC               	movwf	??___fldiv+4
  3495     035F                     u2375:
  3496     035F  37FB               	asrf	??___fldiv+3,f
  3497     0360  0CFA               	rrf	??___fldiv+2,f
  3498     0361  0CF9               	rrf	??___fldiv+1,f
  3499     0362  0CF8               	rrf	??___fldiv,f
  3500     0363                     u2370:
  3501     0363  0BFC               	decfsz	??___fldiv+4,f
  3502     0364  2B5F               	goto	u2375
  3503     0365  087B               	movf	??___fldiv+3,w
  3504     0366  00F7               	movwf	___fldiv@b+3
  3505     0367  087A               	movf	??___fldiv+2,w
  3506     0368  00F6               	movwf	___fldiv@b+2
  3507     0369  0879               	movf	??___fldiv+1,w
  3508     036A  00F5               	movwf	___fldiv@b+1
  3509     036B  0878               	movf	??___fldiv,w
  3510     036C  00F4               	movwf	___fldiv@b
  3511     036D                     l2015:
  3512     036D  3001               	movlw	1
  3513     036E  07A5               	addwf	___fldiv@new_exp,f
  3514     036F  3000               	movlw	0
  3515     0370  3DA6               	addwfc	___fldiv@new_exp+1,f
  3516     0371                     l2017:
  3517     0371  0826               	movf	___fldiv@new_exp+1,w
  3518     0372  3A80               	xorlw	128
  3519     0373  00F8               	movwf	??___fldiv
  3520     0374  3080               	movlw	128
  3521     0375  0278               	subwf	??___fldiv,w
  3522     0376  1D03               	skipz
  3523     0377  2B7A               	goto	u2385
  3524     0378  30FF               	movlw	255
  3525     0379  0225               	subwf	___fldiv@new_exp,w
  3526     037A                     u2385:
  3527     037A  1C03               	skipc
  3528     037B  2B7D               	goto	u2381
  3529     037C  2B7E               	goto	u2380
  3530     037D                     u2381:
  3531     037D  2B8B               	goto	l661
  3532     037E                     u2380:
  3533     037E                     l2019:
  3534     037E  30FF               	movlw	255
  3535     037F  0020               	movlb	0	; select bank0
  3536     0380  00A5               	movwf	___fldiv@new_exp
  3537     0381  3000               	movlw	0
  3538     0382  00A6               	movwf	___fldiv@new_exp+1
  3539     0383  3000               	movlw	0
  3540     0384  00F7               	movwf	___fldiv@b+3
  3541     0385  3000               	movlw	0
  3542     0386  00F6               	movwf	___fldiv@b+2
  3543     0387  3000               	movlw	0
  3544     0388  00F5               	movwf	___fldiv@b+1
  3545     0389  3000               	movlw	0
  3546     038A  00F4               	movwf	___fldiv@b
  3547     038B                     l661:
  3548     038B  0020               	movlb	0	; select bank0
  3549     038C  0826               	movf	___fldiv@new_exp+1,w
  3550     038D  3A80               	xorlw	128
  3551     038E  00F8               	movwf	??___fldiv
  3552     038F  3080               	movlw	128
  3553     0390  0278               	subwf	??___fldiv,w
  3554     0391  1D03               	skipz
  3555     0392  2B95               	goto	u2395
  3556     0393  3001               	movlw	1
  3557     0394  0225               	subwf	___fldiv@new_exp,w
  3558     0395                     u2395:
  3559     0395  1803               	skipnc
  3560     0396  2B98               	goto	u2391
  3561     0397  2B99               	goto	u2390
  3562     0398                     u2391:
  3563     0398  2BA5               	goto	l662
  3564     0399                     u2390:
  3565     0399                     l2021:
  3566     0399  0020               	movlb	0	; select bank0
  3567     039A  01A5               	clrf	___fldiv@new_exp
  3568     039B  01A6               	clrf	___fldiv@new_exp+1
  3569     039C                     l2023:
  3570     039C  3000               	movlw	0
  3571     039D  00F7               	movwf	___fldiv@b+3
  3572     039E  3000               	movlw	0
  3573     039F  00F6               	movwf	___fldiv@b+2
  3574     03A0  3000               	movlw	0
  3575     03A1  00F5               	movwf	___fldiv@b+1
  3576     03A2  3000               	movlw	0
  3577     03A3  00F4               	movwf	___fldiv@b
  3578     03A4                     l2025:
  3579     03A4  01A4               	clrf	___fldiv@sign
  3580     03A5                     l662:
  3581     03A5  0020               	movlb	0	; select bank0
  3582     03A6  0825               	movf	___fldiv@new_exp,w
  3583     03A7  00AB               	movwf	___fldiv@bexp
  3584     03A8                     l2027:
  3585     03A8  1C2B               	btfss	___fldiv@bexp,0
  3586     03A9  2BAB               	goto	u2401
  3587     03AA  2BAC               	goto	u2400
  3588     03AB                     u2401:
  3589     03AB  2BAE               	goto	l2031
  3590     03AC                     u2400:
  3591     03AC                     l2029:
  3592     03AC  17F6               	bsf	___fldiv@b+2,7
  3593     03AD  2BB2               	goto	l664
  3594     03AE                     l2031:
  3595     03AE  307F               	movlw	127
  3596     03AF  00F8               	movwf	??___fldiv
  3597     03B0  0878               	movf	??___fldiv,w
  3598     03B1  05F6               	andwf	___fldiv@b+2,f
  3599     03B2                     l664:
  3600     03B2  362B               	lsrf	___fldiv@bexp,w
  3601     03B3  00F7               	movwf	___fldiv@b+3
  3602     03B4  0824               	movf	___fldiv@sign,w
  3603     03B5  00F8               	movwf	??___fldiv
  3604     03B6  0878               	movf	??___fldiv,w
  3605     03B7  04F7               	iorwf	___fldiv@b+3,f
  3606     03B8  2A79               	goto	l1941
  3607     03B9                     l642:
  3608     03B9  0008               	return
  3609     03BA                     __end_of___fldiv:
  3610                           
  3611                           	psect	text8
  3612     03BA                     __ptext8:	
  3613 ;; *************** function ___fladd *****************
  3614 ;; Defined at:
  3615 ;;		line 10 in file "D:\Program Files\Microchip\xc8\v2.40\pic\sources\c99\common\sprcadd.c"
  3616 ;; Parameters:    Size  Location     Type
  3617 ;;  b               4   39[BANK0 ] unsigned char 
  3618 ;;  a               4   43[BANK0 ] unsigned char 
  3619 ;; Auto vars:     Size  Location     Type
  3620 ;;  grs             1   58[BANK0 ] unsigned char 
  3621 ;;  bexp            1   57[BANK0 ] unsigned char 
  3622 ;;  aexp            1   56[BANK0 ] unsigned char 
  3623 ;;  signs           1   55[BANK0 ] unsigned char 
  3624 ;; Return value:  Size  Location     Type
  3625 ;;                  4   39[BANK0 ] unsigned char 
  3626 ;; Registers used:
  3627 ;;		wreg, status,2, status,0
  3628 ;; Tracked objects:
  3629 ;;		On entry : 0/0
  3630 ;;		On exit  : 0/0
  3631 ;;		Unchanged: 0/0
  3632 ;; Data sizes:     COMMON   BANK0   BANK1   BANK2   BANK3   BANK4   BANK5   BANK6   BANK7   BANK8   BANK9  BANK10  BANK1
      +1  BANK12  BANK13  BANK14  BANK15  BANK16  BANK17  BANK18  BANK19  BANK20  BANK21  BANK22  BANK23  BANK24  BANK25
  3633 ;;      Params:         0       8       0       0       0       0       0       0       0       0       0       0       
      +0       0       0       0       0       0       0       0       0       0       0       0       0       0       0
  3634 ;;      Locals:         0       4       0       0       0       0       0       0       0       0       0       0       
      +0       0       0       0       0       0       0       0       0       0       0       0       0       0       0
  3635 ;;      Temps:          0       8       0       0       0       0       0       0       0       0       0       0       
      +0       0       0       0       0       0       0       0       0       0       0       0       0       0       0
  3636 ;;      Totals:         0      20       0       0       0       0       0       0       0       0       0       0       
      +0       0       0       0       0       0       0       0       0       0       0       0       0       0       0
  3637 ;;Total ram usage:       20 bytes
  3638 ;; Hardware stack levels used: 1
  3639 ;; This function calls:
  3640 ;;		Nothing
  3641 ;; This function is called by:
  3642 ;;		_Servo5
  3643 ;; This function uses a non-reentrant model
  3644 ;;
  3645                           
  3646     03BA                     ___fladd:	
  3647                           ;psect for function ___fladd
  3648                           
  3649     03BA                     l1703:	
  3650                           ;incstack = 0
  3651                           ; Regs used in ___fladd: [wreg+status,2+status,0]
  3652                           
  3653     03BA  0020               	movlb	0	; select bank0
  3654     03BB  084A               	movf	___fladd@b+3,w
  3655     03BC  3980               	andlw	128
  3656     03BD  00D7               	movwf	___fladd@signs
  3657     03BE                     l1705:
  3658     03BE  354A               	lslf	___fladd@b+3,w
  3659     03BF  00D9               	movwf	___fladd@bexp
  3660     03C0                     l1707:
  3661     03C0  1FC9               	btfss	___fladd@b+2,7
  3662     03C1  2BC3               	goto	u1691
  3663     03C2  2BC4               	goto	u1690
  3664     03C3                     u1691:
  3665     03C3  2BC5               	goto	l1711
  3666     03C4                     u1690:
  3667     03C4                     l1709:
  3668     03C4  1459               	bsf	___fladd@bexp,0
  3669     03C5                     l1711:
  3670     03C5  0859               	movf	___fladd@bexp,w
  3671     03C6  1903               	btfsc	3,2
  3672     03C7  2BC9               	goto	u1701
  3673     03C8  2BCA               	goto	u1700
  3674     03C9                     u1701:
  3675     03C9  2BDA               	goto	l1721
  3676     03CA                     u1700:
  3677     03CA                     l1713:
  3678     03CA  0A59               	incf	___fladd@bexp,w
  3679     03CB  1D03               	btfss	3,2
  3680     03CC  2BCE               	goto	u1711
  3681     03CD  2BCF               	goto	u1710
  3682     03CE                     u1711:
  3683     03CE  2BD7               	goto	l1717
  3684     03CF                     u1710:
  3685     03CF                     l1715:
  3686     03CF  3000               	movlw	0
  3687     03D0  00CA               	movwf	___fladd@b+3
  3688     03D1  3000               	movlw	0
  3689     03D2  00C9               	movwf	___fladd@b+2
  3690     03D3  3000               	movlw	0
  3691     03D4  00C8               	movwf	___fladd@b+1
  3692     03D5  3000               	movlw	0
  3693     03D6  00C7               	movwf	___fladd@b
  3694     03D7                     l1717:
  3695     03D7  17C9               	bsf	___fladd@b+2,7
  3696     03D8                     l1719:
  3697     03D8  01CA               	clrf	___fladd@b+3
  3698     03D9  2BE2               	goto	l1723
  3699     03DA                     l1721:
  3700     03DA  3000               	movlw	0
  3701     03DB  00CA               	movwf	___fladd@b+3
  3702     03DC  3000               	movlw	0
  3703     03DD  00C9               	movwf	___fladd@b+2
  3704     03DE  3000               	movlw	0
  3705     03DF  00C8               	movwf	___fladd@b+1
  3706     03E0  3000               	movlw	0
  3707     03E1  00C7               	movwf	___fladd@b
  3708     03E2                     l1723:
  3709     03E2  084E               	movf	___fladd@a+3,w
  3710     03E3  3980               	andlw	128
  3711     03E4  00D8               	movwf	___fladd@aexp
  3712     03E5                     l1725:
  3713     03E5  0858               	movf	___fladd@aexp,w
  3714     03E6  0657               	xorwf	___fladd@signs,w
  3715     03E7  1903               	skipnz
  3716     03E8  2BEA               	goto	u1721
  3717     03E9  2BEB               	goto	u1720
  3718     03EA                     u1721:
  3719     03EA  2BEC               	goto	l1729
  3720     03EB                     u1720:
  3721     03EB                     l1727:
  3722     03EB  1757               	bsf	___fladd@signs,6
  3723     03EC                     l1729:
  3724     03EC  354E               	lslf	___fladd@a+3,w
  3725     03ED  00D8               	movwf	___fladd@aexp
  3726     03EE                     l1731:
  3727     03EE  1FCD               	btfss	___fladd@a+2,7
  3728     03EF  2BF1               	goto	u1731
  3729     03F0  2BF2               	goto	u1730
  3730     03F1                     u1731:
  3731     03F1  2BF3               	goto	l1735
  3732     03F2                     u1730:
  3733     03F2                     l1733:
  3734     03F2  1458               	bsf	___fladd@aexp,0
  3735     03F3                     l1735:
  3736     03F3  0858               	movf	___fladd@aexp,w
  3737     03F4  1903               	btfsc	3,2
  3738     03F5  2BF7               	goto	u1741
  3739     03F6  2BF8               	goto	u1740
  3740     03F7                     u1741:
  3741     03F7  2C08               	goto	l1745
  3742     03F8                     u1740:
  3743     03F8                     l1737:
  3744     03F8  0A58               	incf	___fladd@aexp,w
  3745     03F9  1D03               	btfss	3,2
  3746     03FA  2BFC               	goto	u1751
  3747     03FB  2BFD               	goto	u1750
  3748     03FC                     u1751:
  3749     03FC  2C05               	goto	l1741
  3750     03FD                     u1750:
  3751     03FD                     l1739:
  3752     03FD  3000               	movlw	0
  3753     03FE  00CE               	movwf	___fladd@a+3
  3754     03FF  3000               	movlw	0
  3755     0400  00CD               	movwf	___fladd@a+2
  3756     0401  3000               	movlw	0
  3757     0402  00CC               	movwf	___fladd@a+1
  3758     0403  3000               	movlw	0
  3759     0404  00CB               	movwf	___fladd@a
  3760     0405                     l1741:
  3761     0405  17CD               	bsf	___fladd@a+2,7
  3762     0406                     l1743:
  3763     0406  01CE               	clrf	___fladd@a+3
  3764     0407  2C10               	goto	l584
  3765     0408                     l1745:
  3766     0408  3000               	movlw	0
  3767     0409  00CE               	movwf	___fladd@a+3
  3768     040A  3000               	movlw	0
  3769     040B  00CD               	movwf	___fladd@a+2
  3770     040C  3000               	movlw	0
  3771     040D  00CC               	movwf	___fladd@a+1
  3772     040E  3000               	movlw	0
  3773     040F  00CB               	movwf	___fladd@a
  3774     0410                     l584:
  3775     0410  0859               	movf	___fladd@bexp,w
  3776     0411  0258               	subwf	___fladd@aexp,w
  3777     0412  1803               	skipnc
  3778     0413  2C15               	goto	u1761
  3779     0414  2C16               	goto	u1760
  3780     0415                     u1761:
  3781     0415  2C3C               	goto	l1781
  3782     0416                     u1760:
  3783     0416                     l1747:
  3784     0416  1F57               	btfss	___fladd@signs,6
  3785     0417  2C19               	goto	u1771
  3786     0418  2C1A               	goto	u1770
  3787     0419                     u1771:
  3788     0419  2C1E               	goto	l1751
  3789     041A                     u1770:
  3790     041A                     l1749:
  3791     041A  3080               	movlw	128
  3792     041B  00CF               	movwf	??___fladd
  3793     041C  084F               	movf	??___fladd,w
  3794     041D  06D7               	xorwf	___fladd@signs,f
  3795     041E                     l1751:
  3796     041E  0859               	movf	___fladd@bexp,w
  3797     041F  00DA               	movwf	___fladd@grs
  3798     0420                     l1753:
  3799     0420  0858               	movf	___fladd@aexp,w
  3800     0421  00D9               	movwf	___fladd@bexp
  3801     0422                     l1755:
  3802     0422  085A               	movf	___fladd@grs,w
  3803     0423  00D8               	movwf	___fladd@aexp
  3804     0424                     l1757:
  3805     0424  0847               	movf	___fladd@b,w
  3806     0425  00DA               	movwf	___fladd@grs
  3807     0426                     l1759:
  3808     0426  084B               	movf	___fladd@a,w
  3809     0427  00C7               	movwf	___fladd@b
  3810     0428                     l1761:
  3811     0428  085A               	movf	___fladd@grs,w
  3812     0429  00CB               	movwf	___fladd@a
  3813     042A                     l1763:
  3814     042A  0848               	movf	___fladd@b+1,w
  3815     042B  00DA               	movwf	___fladd@grs
  3816     042C                     l1765:
  3817     042C  084C               	movf	___fladd@a+1,w
  3818     042D  00C8               	movwf	___fladd@b+1
  3819     042E                     l1767:
  3820     042E  085A               	movf	___fladd@grs,w
  3821     042F  00CC               	movwf	___fladd@a+1
  3822     0430                     l1769:
  3823     0430  0849               	movf	___fladd@b+2,w
  3824     0431  00DA               	movwf	___fladd@grs
  3825     0432                     l1771:
  3826     0432  084D               	movf	___fladd@a+2,w
  3827     0433  00C9               	movwf	___fladd@b+2
  3828     0434                     l1773:
  3829     0434  085A               	movf	___fladd@grs,w
  3830     0435  00CD               	movwf	___fladd@a+2
  3831     0436                     l1775:
  3832     0436  084A               	movf	___fladd@b+3,w
  3833     0437  00DA               	movwf	___fladd@grs
  3834     0438                     l1777:
  3835     0438  084E               	movf	___fladd@a+3,w
  3836     0439  00CA               	movwf	___fladd@b+3
  3837     043A                     l1779:
  3838     043A  085A               	movf	___fladd@grs,w
  3839     043B  00CE               	movwf	___fladd@a+3
  3840     043C                     l1781:
  3841     043C  01DA               	clrf	___fladd@grs
  3842     043D                     l1783:
  3843     043D  0858               	movf	___fladd@aexp,w
  3844     043E  00CF               	movwf	??___fladd
  3845     043F  01D0               	clrf	??___fladd+1
  3846     0440  0850               	movf	??___fladd+1,w
  3847     0441  00D2               	movwf	??___fladd+3
  3848     0442  0859               	movf	___fladd@bexp,w
  3849     0443  024F               	subwf	??___fladd,w
  3850     0444  00D1               	movwf	??___fladd+2
  3851     0445  1C03               	skipc
  3852     0446  03D2               	decf	??___fladd+3,f
  3853     0447  0852               	movf	??___fladd+3,w
  3854     0448  3A80               	xorlw	128
  3855     0449  00D3               	movwf	??___fladd+4
  3856     044A  3080               	movlw	128
  3857     044B  0253               	subwf	??___fladd+4,w
  3858     044C  1D03               	skipz
  3859     044D  2C50               	goto	u1785
  3860     044E  301A               	movlw	26
  3861     044F  0251               	subwf	??___fladd+2,w
  3862     0450                     u1785:
  3863     0450  1C03               	skipc
  3864     0451  2C53               	goto	u1781
  3865     0452  2C54               	goto	u1780
  3866     0453                     u1781:
  3867     0453  2C86               	goto	l1799
  3868     0454                     u1780:
  3869     0454                     l1785:
  3870     0454  0020               	movlb	0	; select bank0
  3871     0455  084A               	movf	___fladd@b+3,w
  3872     0456  0449               	iorwf	___fladd@b+2,w
  3873     0457  0448               	iorwf	___fladd@b+1,w
  3874     0458  0447               	iorwf	___fladd@b,w
  3875     0459  1D03               	skipz
  3876     045A  2C5C               	goto	u1791
  3877     045B  2C5E               	goto	u1790
  3878     045C                     u1791:
  3879     045C  3001               	movlw	1
  3880     045D  2C5F               	goto	u1800
  3881     045E                     u1790:
  3882     045E  3000               	movlw	0
  3883     045F                     u1800:
  3884     045F  00DA               	movwf	___fladd@grs
  3885     0460  3000               	movlw	0
  3886     0461  00CA               	movwf	___fladd@b+3
  3887     0462  3000               	movlw	0
  3888     0463  00C9               	movwf	___fladd@b+2
  3889     0464  3000               	movlw	0
  3890     0465  00C8               	movwf	___fladd@b+1
  3891     0466  3000               	movlw	0
  3892     0467  00C7               	movwf	___fladd@b
  3893     0468  0858               	movf	___fladd@aexp,w
  3894     0469  00D9               	movwf	___fladd@bexp
  3895     046A  2C8D               	goto	l588
  3896     046B                     l590:
  3897     046B  1C5A               	btfss	___fladd@grs,0
  3898     046C  2C6E               	goto	u1811
  3899     046D  2C6F               	goto	u1810
  3900     046E                     u1811:
  3901     046E  2C73               	goto	l1789
  3902     046F                     u1810:
  3903     046F                     l1787:
  3904     046F  365A               	lsrf	___fladd@grs,w
  3905     0470  3801               	iorlw	1
  3906     0471  00DA               	movwf	___fladd@grs
  3907     0472  2C75               	goto	l1791
  3908     0473                     l1789:
  3909     0473  1003               	clrc
  3910     0474  0CDA               	rrf	___fladd@grs,f
  3911     0475                     l1791:
  3912     0475  1C47               	btfss	___fladd@b,0
  3913     0476  2C78               	goto	u1821
  3914     0477  2C79               	goto	u1820
  3915     0478                     u1821:
  3916     0478  2C7A               	goto	l1795
  3917     0479                     u1820:
  3918     0479                     l1793:
  3919     0479  17DA               	bsf	___fladd@grs,7
  3920     047A                     l1795:
  3921     047A  3001               	movlw	1
  3922     047B  00CF               	movwf	??___fladd
  3923     047C                     u1835:
  3924     047C  37CA               	asrf	___fladd@b+3,f
  3925     047D  0CC9               	rrf	___fladd@b+2,f
  3926     047E  0CC8               	rrf	___fladd@b+1,f
  3927     047F  0CC7               	rrf	___fladd@b,f
  3928     0480  0BCF               	decfsz	??___fladd& (0+127),f
  3929     0481  2C7C               	goto	u1835
  3930     0482                     l1797:
  3931     0482  3001               	movlw	1
  3932     0483  00CF               	movwf	??___fladd
  3933     0484  084F               	movf	??___fladd,w
  3934     0485  07D9               	addwf	___fladd@bexp,f
  3935     0486                     l1799:
  3936     0486  0020               	movlb	0	; select bank0
  3937     0487  0858               	movf	___fladd@aexp,w
  3938     0488  0259               	subwf	___fladd@bexp,w
  3939     0489  1C03               	skipc
  3940     048A  2C8C               	goto	u1841
  3941     048B  2C8D               	goto	u1840
  3942     048C                     u1841:
  3943     048C  2C6B               	goto	l590
  3944     048D                     u1840:
  3945     048D                     l588:
  3946     048D  1B57               	btfsc	___fladd@signs,6
  3947     048E  2C90               	goto	u1851
  3948     048F  2C91               	goto	u1850
  3949     0490                     u1851:
  3950     0490  2CC7               	goto	l1825
  3951     0491                     u1850:
  3952     0491                     l1801:
  3953     0491  0859               	movf	___fladd@bexp,w
  3954     0492  1D03               	btfss	3,2
  3955     0493  2C95               	goto	u1861
  3956     0494  2C96               	goto	u1860
  3957     0495                     u1861:
  3958     0495  2C9F               	goto	l1807
  3959     0496                     u1860:
  3960     0496                     l1803:
  3961     0496  3000               	movlw	0
  3962     0497  00CA               	movwf	?___fladd+3
  3963     0498  3000               	movlw	0
  3964     0499  00C9               	movwf	?___fladd+2
  3965     049A  3000               	movlw	0
  3966     049B  00C8               	movwf	?___fladd+1
  3967     049C  3000               	movlw	0
  3968     049D  00C7               	movwf	?___fladd
  3969     049E  2DC1               	goto	l597
  3970     049F                     l1807:
  3971     049F  084B               	movf	___fladd@a,w
  3972     04A0  07C7               	addwf	___fladd@b,f
  3973     04A1  084C               	movf	___fladd@a+1,w
  3974     04A2  3DC8               	addwfc	___fladd@b+1,f
  3975     04A3  084D               	movf	___fladd@a+2,w
  3976     04A4  3DC9               	addwfc	___fladd@b+2,f
  3977     04A5  084E               	movf	___fladd@a+3,w
  3978     04A6  3DCA               	addwfc	___fladd@b+3,f
  3979     04A7                     l1809:
  3980     04A7  1C4A               	btfss	___fladd@b+3,0
  3981     04A8  2CAA               	goto	u1871
  3982     04A9  2CAB               	goto	u1870
  3983     04AA                     u1871:
  3984     04AA  2D53               	goto	l1859
  3985     04AB                     u1870:
  3986     04AB                     l1811:
  3987     04AB  1C5A               	btfss	___fladd@grs,0
  3988     04AC  2CAE               	goto	u1881
  3989     04AD  2CAF               	goto	u1880
  3990     04AE                     u1881:
  3991     04AE  2CB3               	goto	l1815
  3992     04AF                     u1880:
  3993     04AF                     l1813:
  3994     04AF  365A               	lsrf	___fladd@grs,w
  3995     04B0  3801               	iorlw	1
  3996     04B1  00DA               	movwf	___fladd@grs
  3997     04B2  2CB5               	goto	l1817
  3998     04B3                     l1815:
  3999     04B3  1003               	clrc
  4000     04B4  0CDA               	rrf	___fladd@grs,f
  4001     04B5                     l1817:
  4002     04B5  1C47               	btfss	___fladd@b,0
  4003     04B6  2CB8               	goto	u1891
  4004     04B7  2CB9               	goto	u1890
  4005     04B8                     u1891:
  4006     04B8  2CBA               	goto	l1821
  4007     04B9                     u1890:
  4008     04B9                     l1819:
  4009     04B9  17DA               	bsf	___fladd@grs,7
  4010     04BA                     l1821:
  4011     04BA  3001               	movlw	1
  4012     04BB  00CF               	movwf	??___fladd
  4013     04BC                     u1905:
  4014     04BC  37CA               	asrf	___fladd@b+3,f
  4015     04BD  0CC9               	rrf	___fladd@b+2,f
  4016     04BE  0CC8               	rrf	___fladd@b+1,f
  4017     04BF  0CC7               	rrf	___fladd@b,f
  4018     04C0  0BCF               	decfsz	??___fladd& (0+127),f
  4019     04C1  2CBC               	goto	u1905
  4020     04C2                     l1823:
  4021     04C2  3001               	movlw	1
  4022     04C3  00CF               	movwf	??___fladd
  4023     04C4  084F               	movf	??___fladd,w
  4024     04C5  07D9               	addwf	___fladd@bexp,f
  4025     04C6  2D53               	goto	l1859
  4026     04C7                     l1825:
  4027     04C7  084A               	movf	___fladd@b+3,w
  4028     04C8  3A80               	xorlw	128
  4029     04C9  00CF               	movwf	??___fladd
  4030     04CA  084E               	movf	___fladd@a+3,w
  4031     04CB  3A80               	xorlw	128
  4032     04CC  024F               	subwf	??___fladd,w
  4033     04CD  1D03               	skipz
  4034     04CE  2CD9               	goto	u1913
  4035     04CF  084D               	movf	___fladd@a+2,w
  4036     04D0  0249               	subwf	___fladd@b+2,w
  4037     04D1  1D03               	skipz
  4038     04D2  2CD9               	goto	u1913
  4039     04D3  084C               	movf	___fladd@a+1,w
  4040     04D4  0248               	subwf	___fladd@b+1,w
  4041     04D5  1D03               	skipz
  4042     04D6  2CD9               	goto	u1913
  4043     04D7  084B               	movf	___fladd@a,w
  4044     04D8  0247               	subwf	___fladd@b,w
  4045     04D9                     u1913:
  4046     04D9  1803               	skipnc
  4047     04DA  2CDC               	goto	u1911
  4048     04DB  2CDD               	goto	u1910
  4049     04DC                     u1911:
  4050     04DC  2D15               	goto	l1835
  4051     04DD                     u1910:
  4052     04DD                     l1827:
  4053     04DD  30FF               	movlw	255
  4054     04DE  00CF               	movwf	??___fladd
  4055     04DF  30FF               	movlw	255
  4056     04E0  00D0               	movwf	??___fladd+1
  4057     04E1  30FF               	movlw	255
  4058     04E2  00D1               	movwf	??___fladd+2
  4059     04E3  30FF               	movlw	255
  4060     04E4  00D2               	movwf	??___fladd+3
  4061     04E5  0847               	movf	___fladd@b,w
  4062     04E6  024B               	subwf	___fladd@a,w
  4063     04E7  00D3               	movwf	??___fladd+4
  4064     04E8  0848               	movf	___fladd@b+1,w
  4065     04E9  3B4C               	subwfb	___fladd@a+1,w
  4066     04EA  00D4               	movwf	??___fladd+5
  4067     04EB  0849               	movf	___fladd@b+2,w
  4068     04EC  3B4D               	subwfb	___fladd@a+2,w
  4069     04ED  00D5               	movwf	??___fladd+6
  4070     04EE  084A               	movf	___fladd@b+3,w
  4071     04EF  3B4E               	subwfb	___fladd@a+3,w
  4072     04F0  00D6               	movwf	??___fladd+7
  4073     04F1  0853               	movf	??___fladd+4,w
  4074     04F2  07CF               	addwf	??___fladd,f
  4075     04F3  0854               	movf	??___fladd+5,w
  4076     04F4  3DD0               	addwfc	??___fladd+1,f
  4077     04F5  0855               	movf	??___fladd+6,w
  4078     04F6  3DD1               	addwfc	??___fladd+2,f
  4079     04F7  0856               	movf	??___fladd+7,w
  4080     04F8  3DD2               	addwfc	??___fladd+3,f
  4081     04F9  0852               	movf	??___fladd+3,w
  4082     04FA  00CA               	movwf	___fladd@b+3
  4083     04FB  0851               	movf	??___fladd+2,w
  4084     04FC  00C9               	movwf	___fladd@b+2
  4085     04FD  0850               	movf	??___fladd+1,w
  4086     04FE  00C8               	movwf	___fladd@b+1
  4087     04FF  084F               	movf	??___fladd,w
  4088     0500  00C7               	movwf	___fladd@b
  4089     0501                     l1829:
  4090     0501  3080               	movlw	128
  4091     0502  00CF               	movwf	??___fladd
  4092     0503  084F               	movf	??___fladd,w
  4093     0504  06D7               	xorwf	___fladd@signs,f
  4094     0505  09DA               	comf	___fladd@grs,f
  4095     0506  0ADA               	incf	___fladd@grs,f
  4096     0507                     l1831:
  4097     0507  085A               	movf	___fladd@grs,w
  4098     0508  1D03               	btfss	3,2
  4099     0509  2D0B               	goto	u1921
  4100     050A  2D0C               	goto	u1920
  4101     050B                     u1921:
  4102     050B  2D1D               	goto	l605
  4103     050C                     u1920:
  4104     050C                     l1833:
  4105     050C  3001               	movlw	1
  4106     050D  07C7               	addwf	___fladd@b,f
  4107     050E  3000               	movlw	0
  4108     050F  3DC8               	addwfc	___fladd@b+1,f
  4109     0510  3000               	movlw	0
  4110     0511  3DC9               	addwfc	___fladd@b+2,f
  4111     0512  3000               	movlw	0
  4112     0513  3DCA               	addwfc	___fladd@b+3,f
  4113     0514  2D1D               	goto	l605
  4114     0515                     l1835:
  4115     0515  084B               	movf	___fladd@a,w
  4116     0516  02C7               	subwf	___fladd@b,f
  4117     0517  084C               	movf	___fladd@a+1,w
  4118     0518  3BC8               	subwfb	___fladd@b+1,f
  4119     0519  084D               	movf	___fladd@a+2,w
  4120     051A  3BC9               	subwfb	___fladd@b+2,f
  4121     051B  084E               	movf	___fladd@a+3,w
  4122     051C  3BCA               	subwfb	___fladd@b+3,f
  4123     051D                     l605:
  4124     051D  084A               	movf	___fladd@b+3,w
  4125     051E  0449               	iorwf	___fladd@b+2,w
  4126     051F  0448               	iorwf	___fladd@b+1,w
  4127     0520  0447               	iorwf	___fladd@b,w
  4128     0521  1D03               	skipz
  4129     0522  2D24               	goto	u1931
  4130     0523  2D25               	goto	u1930
  4131     0524                     u1931:
  4132     0524  2D4F               	goto	l1857
  4133     0525                     u1930:
  4134     0525                     l1837:
  4135     0525  085A               	movf	___fladd@grs,w
  4136     0526  1D03               	btfss	3,2
  4137     0527  2D29               	goto	u1941
  4138     0528  2D2A               	goto	u1940
  4139     0529                     u1941:
  4140     0529  2D4F               	goto	l1857
  4141     052A                     u1940:
  4142     052A                     l1839:
  4143     052A  3000               	movlw	0
  4144     052B  00CA               	movwf	?___fladd+3
  4145     052C  3000               	movlw	0
  4146     052D  00C9               	movwf	?___fladd+2
  4147     052E  3000               	movlw	0
  4148     052F  00C8               	movwf	?___fladd+1
  4149     0530  3000               	movlw	0
  4150     0531  00C7               	movwf	?___fladd
  4151     0532  2DC1               	goto	l597
  4152     0533                     l1843:
  4153     0533  3001               	movlw	1
  4154     0534                     u1955:
  4155     0534  35C7               	lslf	___fladd@b,f
  4156     0535  0DC8               	rlf	___fladd@b+1,f
  4157     0536  0DC9               	rlf	___fladd@b+2,f
  4158     0537  0DCA               	rlf	___fladd@b+3,f
  4159     0538  0B89               	decfsz	9,f
  4160     0539  2D34               	goto	u1955
  4161     053A                     l1845:
  4162     053A  1FDA               	btfss	___fladd@grs,7
  4163     053B  2D3D               	goto	u1961
  4164     053C  2D3E               	goto	u1960
  4165     053D                     u1961:
  4166     053D  2D3F               	goto	l609
  4167     053E                     u1960:
  4168     053E                     l1847:
  4169     053E  1447               	bsf	___fladd@b,0
  4170     053F                     l609:
  4171     053F  1C5A               	btfss	___fladd@grs,0
  4172     0540  2D42               	goto	u1971
  4173     0541  2D43               	goto	u1970
  4174     0542                     u1971:
  4175     0542  2D46               	goto	l1851
  4176     0543                     u1970:
  4177     0543                     l1849:
  4178     0543  1403               	setc
  4179     0544  0DDA               	rlf	___fladd@grs,f
  4180     0545  2D48               	goto	l1853
  4181     0546                     l1851:
  4182     0546  1003               	clrc
  4183     0547  0DDA               	rlf	___fladd@grs,f
  4184     0548                     l1853:
  4185     0548  0859               	movf	___fladd@bexp,w
  4186     0549  1903               	btfsc	3,2
  4187     054A  2D4C               	goto	u1981
  4188     054B  2D4D               	goto	u1980
  4189     054C                     u1981:
  4190     054C  2D4F               	goto	l1857
  4191     054D                     u1980:
  4192     054D                     l1855:
  4193     054D  3001               	movlw	1
  4194     054E  02D9               	subwf	___fladd@bexp,f
  4195     054F                     l1857:
  4196     054F  1FC9               	btfss	___fladd@b+2,7
  4197     0550  2D52               	goto	u1991
  4198     0551  2D53               	goto	u1990
  4199     0552                     u1991:
  4200     0552  2D33               	goto	l1843
  4201     0553                     u1990:
  4202     0553                     l1859:
  4203     0553  01D8               	clrf	___fladd@aexp
  4204     0554                     l1861:
  4205     0554  1FDA               	btfss	___fladd@grs,7
  4206     0555  2D57               	goto	u2001
  4207     0556  2D58               	goto	u2000
  4208     0557                     u2001:
  4209     0557  2D66               	goto	l1869
  4210     0558                     u2000:
  4211     0558                     l1863:
  4212     0558  085A               	movf	___fladd@grs,w
  4213     0559  397F               	andlw	127
  4214     055A  1903               	btfsc	3,2
  4215     055B  2D5D               	goto	u2011
  4216     055C  2D5E               	goto	u2010
  4217     055D                     u2011:
  4218     055D  2D61               	goto	l615
  4219     055E                     u2010:
  4220     055E                     l1865:
  4221     055E  01D8               	clrf	___fladd@aexp
  4222     055F  0AD8               	incf	___fladd@aexp,f
  4223     0560  2D66               	goto	l1869
  4224     0561                     l615:
  4225     0561  1C47               	btfss	___fladd@b,0
  4226     0562  2D64               	goto	u2021
  4227     0563  2D65               	goto	u2020
  4228     0564                     u2021:
  4229     0564  2D66               	goto	l1869
  4230     0565                     u2020:
  4231     0565  2D5E               	goto	l1865
  4232     0566                     l1869:
  4233     0566  0858               	movf	___fladd@aexp,w
  4234     0567  1903               	btfsc	3,2
  4235     0568  2D6A               	goto	u2031
  4236     0569  2D6B               	goto	u2030
  4237     056A                     u2031:
  4238     056A  2D98               	goto	l618
  4239     056B                     u2030:
  4240     056B                     l1871:
  4241     056B  3001               	movlw	1
  4242     056C  07C7               	addwf	___fladd@b,f
  4243     056D  3000               	movlw	0
  4244     056E  3DC8               	addwfc	___fladd@b+1,f
  4245     056F  3000               	movlw	0
  4246     0570  3DC9               	addwfc	___fladd@b+2,f
  4247     0571  3000               	movlw	0
  4248     0572  3DCA               	addwfc	___fladd@b+3,f
  4249     0573                     l1873:
  4250     0573  1C4A               	btfss	___fladd@b+3,0
  4251     0574  2D76               	goto	u2041
  4252     0575  2D77               	goto	u2040
  4253     0576                     u2041:
  4254     0576  2D98               	goto	l618
  4255     0577                     u2040:
  4256     0577                     l1875:
  4257     0577  0847               	movf	___fladd@b,w
  4258     0578  00CF               	movwf	??___fladd
  4259     0579  0848               	movf	___fladd@b+1,w
  4260     057A  00D0               	movwf	??___fladd+1
  4261     057B  0849               	movf	___fladd@b+2,w
  4262     057C  00D1               	movwf	??___fladd+2
  4263     057D  084A               	movf	___fladd@b+3,w
  4264     057E  00D2               	movwf	??___fladd+3
  4265     057F  3001               	movlw	1
  4266     0580  00D3               	movwf	??___fladd+4
  4267     0581                     u2055:
  4268     0581  37D2               	asrf	??___fladd+3,f
  4269     0582  0CD1               	rrf	??___fladd+2,f
  4270     0583  0CD0               	rrf	??___fladd+1,f
  4271     0584  0CCF               	rrf	??___fladd,f
  4272     0585                     u2050:
  4273     0585  0BD3               	decfsz	??___fladd+4,f
  4274     0586  2D81               	goto	u2055
  4275     0587  0852               	movf	??___fladd+3,w
  4276     0588  00CA               	movwf	___fladd@b+3
  4277     0589  0851               	movf	??___fladd+2,w
  4278     058A  00C9               	movwf	___fladd@b+2
  4279     058B  0850               	movf	??___fladd+1,w
  4280     058C  00C8               	movwf	___fladd@b+1
  4281     058D  084F               	movf	??___fladd,w
  4282     058E  00C7               	movwf	___fladd@b
  4283     058F  0A59               	incf	___fladd@bexp,w
  4284     0590  1903               	btfsc	3,2
  4285     0591  2D93               	goto	u2061
  4286     0592  2D94               	goto	u2060
  4287     0593                     u2061:
  4288     0593  2D98               	goto	l618
  4289     0594                     u2060:
  4290     0594                     l1877:
  4291     0594  3001               	movlw	1
  4292     0595  00CF               	movwf	??___fladd
  4293     0596  084F               	movf	??___fladd,w
  4294     0597  07D9               	addwf	___fladd@bexp,f
  4295     0598                     l618:
  4296     0598  0A59               	incf	___fladd@bexp,w
  4297     0599  1903               	btfsc	3,2
  4298     059A  2D9C               	goto	u2071
  4299     059B  2D9D               	goto	u2070
  4300     059C                     u2071:
  4301     059C  2DA2               	goto	l1881
  4302     059D                     u2070:
  4303     059D                     l1879:
  4304     059D  0859               	movf	___fladd@bexp,w
  4305     059E  1D03               	btfss	3,2
  4306     059F  2DA1               	goto	u2081
  4307     05A0  2DA2               	goto	u2080
  4308     05A1                     u2081:
  4309     05A1  2DB0               	goto	l1887
  4310     05A2                     u2080:
  4311     05A2                     l1881:
  4312     05A2  3000               	movlw	0
  4313     05A3  00CA               	movwf	___fladd@b+3
  4314     05A4  3000               	movlw	0
  4315     05A5  00C9               	movwf	___fladd@b+2
  4316     05A6  3000               	movlw	0
  4317     05A7  00C8               	movwf	___fladd@b+1
  4318     05A8  3000               	movlw	0
  4319     05A9  00C7               	movwf	___fladd@b
  4320     05AA                     l1883:
  4321     05AA  0859               	movf	___fladd@bexp,w
  4322     05AB  1D03               	btfss	3,2
  4323     05AC  2DAE               	goto	u2091
  4324     05AD  2DAF               	goto	u2090
  4325     05AE                     u2091:
  4326     05AE  2DB0               	goto	l1887
  4327     05AF                     u2090:
  4328     05AF                     l1885:
  4329     05AF  01D7               	clrf	___fladd@signs
  4330     05B0                     l1887:
  4331     05B0  1C59               	btfss	___fladd@bexp,0
  4332     05B1  2DB3               	goto	u2101
  4333     05B2  2DB4               	goto	u2100
  4334     05B3                     u2101:
  4335     05B3  2DB6               	goto	l1891
  4336     05B4                     u2100:
  4337     05B4                     l1889:
  4338     05B4  17C9               	bsf	___fladd@b+2,7
  4339     05B5  2DBA               	goto	l626
  4340     05B6                     l1891:
  4341     05B6  307F               	movlw	127
  4342     05B7  00CF               	movwf	??___fladd
  4343     05B8  084F               	movf	??___fladd,w
  4344     05B9  05C9               	andwf	___fladd@b+2,f
  4345     05BA                     l626:
  4346     05BA  3659               	lsrf	___fladd@bexp,w
  4347     05BB  00CA               	movwf	___fladd@b+3
  4348     05BC                     l1893:
  4349     05BC  1FD7               	btfss	___fladd@signs,7
  4350     05BD  2DBF               	goto	u2111
  4351     05BE  2DC0               	goto	u2110
  4352     05BF                     u2111:
  4353     05BF  2DC1               	goto	l627
  4354     05C0                     u2110:
  4355     05C0                     l1895:
  4356     05C0  17CA               	bsf	___fladd@b+3,7
  4357     05C1                     l627:
  4358     05C1                     l597:
  4359     05C1  0008               	return
  4360     05C2                     __end_of___fladd:
  4361     007E                     btemp	set	126	;btemp
  4362     007E                     wtemp0	set	126
  4363                           
  4364                           	psect	idloc
  4365                           
  4366                           ;Config register IDLOC0 @ 0x8000
  4367                           ;	unspecified, using default values
  4368     8000                     	org	32768
  4369     8000  3FFF               	dw	16383
  4370                           
  4371                           ;Config register IDLOC1 @ 0x8001
  4372                           ;	unspecified, using default values
  4373     8001                     	org	32769
  4374     8001  3FFF               	dw	16383
  4375                           
  4376                           ;Config register IDLOC2 @ 0x8002
  4377                           ;	unspecified, using default values
  4378     8002                     	org	32770
  4379     8002  3FFF               	dw	16383
  4380                           
  4381                           ;Config register IDLOC3 @ 0x8003
  4382                           ;	unspecified, using default values
  4383     8003                     	org	32771
  4384     8003  3FFF               	dw	16383
  4385                           
  4386                           	psect	config
  4387                           
  4388                           ;Config register CONFIG1 @ 0x8007
  4389                           ;	Oscillator Selection Bits
  4390                           ;	FOSC = INTOSC, INTOSC oscillator: I/O function on CLKIN pin
  4391                           ;	Watchdog Timer Enable
  4392                           ;	WDTE = OFF, WDT disabled
  4393                           ;	Power-up Timer Enable
  4394                           ;	PWRTE = ON, PWRT enabled
  4395                           ;	MCLR Pin Function Select
  4396                           ;	MCLRE = ON, MCLR/VPP pin function is MCLR
  4397                           ;	Flash Program Memory Code Protection
  4398                           ;	CP = OFF, Program memory code protection is disabled
  4399                           ;	Brown-out Reset Enable
  4400                           ;	BOREN = ON, Brown-out Reset enabled
  4401                           ;	Clock Out Enable
  4402                           ;	CLKOUTEN = OFF, CLKOUT function is disabled. I/O or oscillator function on the CLKOUT 
      +                          pin
  4403                           ;	Internal/External Switchover Mode
  4404                           ;	IESO = OFF, Internal/External Switchover Mode is disabled
  4405                           ;	Fail-Safe Clock Monitor Enable
  4406                           ;	FCMEN = OFF, Fail-Safe Clock Monitor is disabled
  4407     8007                     	org	32775
  4408     8007  0FC4               	dw	4036
  4409                           
  4410                           ;Config register CONFIG2 @ 0x8008
  4411                           ;	Flash Memory Self-Write Protection
  4412                           ;	WRT = OFF, Write protection off
  4413                           ;	Peripheral Pin Select one-way control
  4414                           ;	PPS1WAY = ON, The PPSLOCK bit cannot be cleared once it is set by software
  4415                           ;	Zero-cross detect disable
  4416                           ;	ZCD = OFF, Zero-cross detect circuit is disabled at POR
  4417                           ;	Phase Lock Loop enable
  4418                           ;	PLLEN = ON, 4x PLL is always enabled
  4419                           ;	Stack Overflow/Underflow Reset Enable
  4420                           ;	STVREN = ON, Stack Overflow or Underflow will cause a Reset
  4421                           ;	Brown-out Reset Voltage Selection
  4422                           ;	BORV = HI, Brown-out Reset Voltage (Vbor), high trip point selected.
  4423                           ;	Low-Power Brown Out Reset
  4424                           ;	LPBOR = OFF, Low-Power BOR is disabled
  4425                           ;	Low-Voltage Programming Enable
  4426                           ;	LVP = OFF, High-voltage on MCLR/VPP must be used for programming
  4427     8008                     	org	32776
  4428     8008  1BFF               	dw	7167

Data Sizes:
    Strings     0
    Constant    0
    Data        0
    BSS         0
    Persistent  32
    Stack       0

Auto Spaces:
    Space          Size  Autos    Used
    COMMON           14     14      14
    BANK0            80     73      73
    BANK1            80      0       0
    BANK2            80      0       0
    BANK3            80      0       0
    BANK4            80      0       0
    BANK5            80      0       0
    BANK6            80      0       0
    BANK7            80      0       0
    BANK8            80      0       0
    BANK9            80      0       0
    BANK10           80      0       0
    BANK11           80      0       0
    BANK12           48      0       0
    BANK13           80      0       0
    BANK14           80      0       0
    BANK15           80      0       0
    BANK16           80      0       0
    BANK17           80      0       0
    BANK18           80      0       0
    BANK19           80      0       0
    BANK20           80      0       0
    BANK21           80      0       0
    BANK22           80      0       0
    BANK23           80      0       0
    BANK24           80      0       0
    BANK25           32      0       0

Pointer List with Targets:

    None.

Critical Paths under _main in COMMON

    _main->___xxtofl
    _Servo5->___xxtofl
    ___flmul->___fldiv
    ___fladd->___fldiv

Critical Paths under _main in BANK0

    _main->_Servo5
    _Servo5->___fladd
    ___flmul->___fldiv
    ___fladd->___flmul

Critical Paths under _main in BANK1

    None.

Critical Paths under _main in BANK2

    None.

Critical Paths under _main in BANK3

    None.

Critical Paths under _main in BANK4

    None.

Critical Paths under _main in BANK5

    None.

Critical Paths under _main in BANK6

    None.

Critical Paths under _main in BANK7

    None.

Critical Paths under _main in BANK8

    None.

Critical Paths under _main in BANK9

    None.

Critical Paths under _main in BANK10

    None.

Critical Paths under _main in BANK11

    None.

Critical Paths under _main in BANK12

    None.

Critical Paths under _main in BANK13

    None.

Critical Paths under _main in BANK14

    None.

Critical Paths under _main in BANK15

    None.

Critical Paths under _main in BANK16

    None.

Critical Paths under _main in BANK17

    None.

Critical Paths under _main in BANK18

    None.

Critical Paths under _main in BANK19

    None.

Critical Paths under _main in BANK20

    None.

Critical Paths under _main in BANK21

    None.

Critical Paths under _main in BANK22

    None.

Critical Paths under _main in BANK23

    None.

Critical Paths under _main in BANK24

    None.

Critical Paths under _main in BANK25

    None.

Call Graph Tables:

 ---------------------------------------------------------------------------------
 (Depth) Function   	        Calls       Base Space   Used Autos Params    Refs
 ---------------------------------------------------------------------------------
 (0) _main                                                 6     6      0    7694
                                             67 BANK0      6     6      0
                             _Servo5
                           ___xxtofl
 ---------------------------------------------------------------------------------
 (1) ___xxtofl                                            14    10      4     474
                                              0 COMMON    14    10      4
 ---------------------------------------------------------------------------------
 (1) _Servo5                                               8     4      4    7084
                                             59 BANK0      8     4      4
                            ___fladd
                            ___fldiv
                             ___flge
                            ___flmul
                            ___fltol
                           ___xxtofl (ARG)
 ---------------------------------------------------------------------------------
 (2) ___fltol                                             10     6      4     381
                                              0 COMMON    10     6      4
 ---------------------------------------------------------------------------------
 (2) ___flmul                                             26    18      8    2417
                                             13 BANK0     26    18      8
                          __Umul8_16
                            ___fldiv (ARG)
 ---------------------------------------------------------------------------------
 (3) __Umul8_16                                            9     7      2     799
                                              0 COMMON     9     7      2
 ---------------------------------------------------------------------------------
 (2) ___flge                                              12     4      8     486
                                              0 COMMON    12     4      8
 ---------------------------------------------------------------------------------
 (2) ___fldiv                                             26    18      8    1273
                                              0 COMMON    13     5      8
                                              0 BANK0     13    13      0
 ---------------------------------------------------------------------------------
 (2) ___fladd                                             20    12      8    2262
                                             39 BANK0     20    12      8
                            ___fldiv (ARG)
                            ___flmul (ARG)
 ---------------------------------------------------------------------------------
 Estimated maximum stack depth 3
 ---------------------------------------------------------------------------------

 Call Graph Graphs:

 _main (ROOT)
   _Servo5
     ___fladd
       ___fldiv (ARG)
       ___flmul (ARG)
         __Umul8_16
         ___fldiv (ARG)
     ___fldiv
     ___flge
     ___flmul
     ___fltol
     ___xxtofl (ARG)
   ___xxtofl

 Address spaces:
Name               Size   Autos  Total    Cost      Usage
BIGRAM_1           3E0      0       0       0        0.0%
NULL                 0      0       0       0        0.0%
CODE                 0      0       0       0        0.0%
BIGRAM             3F0      0       0       1        0.0%
BITSFR0              0      0       0       1        0.0%
SFR0                 0      0       0       1        0.0%
BITCOMMON            E      0       0       2        0.0%
BITSFR1              0      0       0       2        0.0%
SFR1                 0      0       0       2        0.0%
COMMON               E      E       E       3      100.0%
BITSFR2              0      0       0       3        0.0%
SFR2                 0      0       0       3        0.0%
BITSFR3              0      0       0       4        0.0%
SFR3                 0      0       0       4        0.0%
STACK                0      0       0       4        0.0%
BANK0               50     49      49       5       91.2%
BITSFR4              0      0       0       5        0.0%
SFR4                 0      0       0       5        0.0%
BITBANK0            50      0       0       6        0.0%
BITSFR5              0      0       0       6        0.0%
SFR5                 0      0       0       6        0.0%
BITBANK1            50      0       0       7        0.0%
BITSFR6              0      0       0       7        0.0%
SFR6                 0      0       0       7        0.0%
BANK1               50      0       0       8        0.0%
BITSFR7              0      0       0       8        0.0%
SFR7                 0      0       0       8        0.0%
BITBANK2            50      0       0       9        0.0%
BITSFR8              0      0       0       9        0.0%
SFR8                 0      0       0       9        0.0%
BANK2               50      0       0      10        0.0%
BITSFR9              0      0       0      10        0.0%
SFR9                 0      0       0      10        0.0%
BITBANK3            50      0       0      11        0.0%
BITSFR10             0      0       0      11        0.0%
SFR10                0      0       0      11        0.0%
BANK3               50      0       0      12        0.0%
BITSFR11             0      0       0      12        0.0%
SFR11                0      0       0      12        0.0%
BITSFR12             0      0       0      13        0.0%
SFR12                0      0       0      13        0.0%
ABS                  0      0       0      13        0.0%
BITBANK4            50      0       0      14        0.0%
BITSFR13             0      0       0      14        0.0%
SFR13                0      0       0      14        0.0%
BANK4               50      0       0      15        0.0%
BITSFR14             0      0       0      15        0.0%
SFR14                0      0       0      15        0.0%
BITBANK5            50      0       0      16        0.0%
BITSFR15             0      0       0      16        0.0%
SFR15                0      0       0      16        0.0%
BANK5               50      0       0      17        0.0%
BITSFR16             0      0       0      17        0.0%
SFR16                0      0       0      17        0.0%
BITBANK6            50      0       0      18        0.0%
BITSFR17             0      0       0      18        0.0%
SFR17                0      0       0      18        0.0%
BANK6               50      0       0      19        0.0%
BITSFR18             0      0       0      19        0.0%
SFR18                0      0       0      19        0.0%
BITBANK7            50      0       0      20        0.0%
BITSFR19             0      0       0      20        0.0%
SFR19                0      0       0      20        0.0%
BANK7               50      0       0      21        0.0%
BITSFR20             0      0       0      21        0.0%
SFR20                0      0       0      21        0.0%
BITBANK8            50      0       0      22        0.0%
BITSFR21             0      0       0      22        0.0%
SFR21                0      0       0      22        0.0%
BANK8               50      0       0      23        0.0%
BITSFR22             0      0       0      23        0.0%
SFR22                0      0       0      23        0.0%
BITBANK9            50      0       0      24        0.0%
BITSFR23             0      0       0      24        0.0%
SFR23                0      0       0      24        0.0%
BANK9               50      0       0      25        0.0%
BITSFR24             0      0       0      25        0.0%
SFR24                0      0       0      25        0.0%
BITBANK10           50      0       0      26        0.0%
BITSFR25             0      0       0      26        0.0%
SFR25                0      0       0      26        0.0%
BANK10              50      0       0      27        0.0%
BITSFR26             0      0       0      27        0.0%
SFR26                0      0       0      27        0.0%
BITBANK11           50      0       0      28        0.0%
BITSFR27             0      0       0      28        0.0%
SFR27                0      0       0      28        0.0%
BANK11              50      0       0      29        0.0%
BITSFR28             0      0       0      29        0.0%
SFR28                0      0       0      29        0.0%
BITSFR29             0      0       0      30        0.0%
SFR29                0      0       0      30        0.0%
DATA                 0      0       0      30        0.0%
BITBANK12           30      0       0      31        0.0%
BITSFR30             0      0       0      31        0.0%
SFR30                0      0       0      31        0.0%
BANK12              30      0       0      32        0.0%
BITSFR31             0      0       0      32        0.0%
SFR31                0      0       0      32        0.0%
BITBANK13           50      0       0      33        0.0%
BANK13              50      0       0      34        0.0%
BITBANK14           50      0       0      35        0.0%
BANK14              50      0       0      36        0.0%
BITBANK15           50      0       0      37        0.0%
BANK15              50      0       0      38        0.0%
BITBANK16           50      0       0      39        0.0%
BANK16              50      0       0      40        0.0%
BITBANK17           50      0       0      41        0.0%
BANK17              50      0       0      42        0.0%
BITBANK18           50      0       0      43        0.0%
BANK18              50      0       0      44        0.0%
BITBANK19           50      0       0      45        0.0%
BANK19              50      0       0      46        0.0%
BITBANK20           50      0       0      47        0.0%
BANK20              50      0       0      48        0.0%
BITBANK21           50      0       0      49        0.0%
BANK21              50      0       0      50        0.0%
BITBANK22           50      0       0      51        0.0%
BANK22              50      0       0      52        0.0%
BITBANK23           50      0       0      53        0.0%
BANK23              50      0       0      54        0.0%
BITBANK24           50      0       0      55        0.0%
BANK24              50      0       0      56        0.0%
BITBANK25           20      0       0      57        0.0%
BANK25              20      0       0      58        0.0%


Microchip Technology PIC Macro Assembler V2.40 build 20220703182018 
Symbol Table                                                                                   Tue Aug 15 17:12:43 2023

           ___fldiv@aexp 002C             ___fldiv@bexp 002B             ___fldiv@sign 0024  
    __Umul8_16@word_mpld 0076                      l215 0FFF                      l605 051D  
                    l461 0EEC                      l701 0ECF                      l615 0561  
                    l640 0261                      l464 0F40                      l609 053F  
                    l626 05BA                      l618 0598                      l642 03B9  
                    l730 00E8                      l627 05C1                      l484 0077  
                    l724 00AF                      l661 038B                      l469 0F59  
                    l477 008C                      l590 046B                      l662 03A5  
                    l726 0136                      l487 008C                      l584 0410  
                    l664 03B2                      l656 033F                      l680 07FC  
                    l737 0102                      l738 010E                      l588 048D  
                    l692 07F0                      l597 05C1                      l686 077C  
                    l699 0EBF                      wreg 0009             ___flmul@aexp 003F  
           ___flmul@bexp 0040             ___flmul@sign 003A             ___flmul@temp 0045  
           ___flmul@prod 0041             ___fltol@exp1 0079                     l2001 0328  
                   l2011 0351                     l2003 033C                     l2021 0399  
                   l2013 0355                     l2101 06AC                     l2031 03AE  
                   l2023 039C                     l2015 036D                     l2007 0344  
                   l2111 06E9                     l2103 06B7                     l2025 03A4  
                   l2009 0349                     l2017 0371                     l2121 0739  
                   l2113 06F4                     l2105 06BE                     l2041 05C8  
                   l2027 03A8                     l2019 037E                     l2131 0758  
                   l2123 0745                     l2115 0706                     l2107 06D0  
                   l2051 05DF                     l2043 05CC                     l2211 00D9  
                   l2203 00C0                     l2029 03AC                     l2141 0779  
                   l2125 074C                     l2133 075C                     l2117 071B  
                   l2109 06D7                     l2061 05F4                     l2053 05E1  
                   l2045 05CD                     l2037 05C2                     l2221 0106  
                   l2213 00E1                     l2205 00C3                     l2301 018A  
                   l2151 0792                     l2135 0760                     l2127 0750  
                   l2119 0732                     l2071 0609                     l2063 05F5  
                   l2055 05E9                     l2047 05D2                     l2039 05C6  
                   l2231 012E                     l2223 0110                     l2215 00EF  
                   l2207 00CE                     l2311 0192                     l2303 018D  
                   l2161 07D3                     l2153 07AA                     l2145 0781  
                   l2137 0761                     l2129 0751                     l2081 0624  
                   l2073 0611                     l2065 05FA                     l2057 05EE  
                   l2049 05D7                     l2225 0124                     l2217 00F8  
                   l2209 00D5                     l2321 019B                     l2313 0193  
                   l2305 018F                     l2241 013F                     l2171 07EE  
                   l2163 07DC                     l2147 0786                     l2155 07AE  
                   l2139 0765                     l2091 0679                     l2083 062F  
                   l2075 0616                     l2067 05FF                     l2059 05F0  
                   l2227 0129                     l2219 00FC                     l2323 019C  
                   l2315 0195                     l2307 0190                     l2251 014F  
                   l2243 0142                     l2235 0137                     l2173 07F4  
                   l2165 07DE                     l2157 07BB                     l2149 078E  
                   l2093 0686                     l2085 063C                     l2077 061B  
                   l2069 0607                     l1701 0081                     l2181 0F7B  
                   l2229 012D                     l2341 01CD                     l2325 019D  
                   l2317 0197                     l2309 0191                     l2261 015C  
                   l2253 0150                     l2245 0149                     l2237 013A  
                   l1711 03C5                     l1703 03BA                     l2167 07E9  
                   l2159 07C5                     l2095 0693                     l2087 0654  
                   l2183 0F93                     l2191 008E                     l2351 01F8  
                   l2343 01DA                     l2335 01A2                     l2327 019E  
                   l2319 0199                     l2271 0168                     l2263 015F  
                   l2255 0155                     l2247 014B                     l2239 013C  
                   l1801 0491                     l1713 03CA                     l1721 03DA  
                   l1705 03BE                     l1641 0EC6                     l1633 0EAE  
                   l2169 07ED                     l2097 069A                     l2089 0661  
                   l2185 0F9C                     l2177 0F5A                     l2193 0093  
                   l2353 0204                     l2337 01BC                     l2329 019F  
                   l2281 0174                     l2273 016B                     l2265 0162  
                   l2257 0157                     l2249 014E                     l1811 04AB  
                   l1803 0496                     l1731 03EE                     l1723 03E2  
                   l1715 03CF                     l1707 03C0                     l1651 0F00  
                   l1643 0ECB                     l1635 0EB0                     l2099 06A5  
                   l2187 0FFE                     l2179 0F72                     l2195 0097  
                   l2355 0209                     l2339 01C8                     l2291 0180  
                   l2283 0177                     l2275 016E                     l2267 0164  
                   l2259 0159                     l1821 04BA                     l1813 04AF  
                   l1741 0405                     l1733 03F2                     l1725 03E5  
                   l1717 03D7                     l1709 03C4                     l1901 0216  
                   l1661 0F56                     l1653 0F08                     l1637 0EB7  
                   l2197 00A7                     l2349 01DF                     l2293 0183  
                   l2285 017A                     l2277 0170                     l2269 0165  
                   l1831 0507                     l1823 04C2                     l1815 04B3  
                   l1807 049F                     l1751 041E                     l1743 0406  
                   l1735 03F3                     l1727 03EB                     l1719 03D8  
                   l1911 022D                     l1903 021A                     l1663 0F58  
                   l1655 0F0C                     l1647 0ED0                     l1639 0EBB  
                   l2199 00B7                     l2295 0185                     l2287 017C  
                   l2279 0171                     l1833 050C                     l1817 04B5  
                   l1809 04A7                     l1825 04C7                     l1761 0428  
                   l1753 0420                     l1737 03F8                     l1745 0408  
                   l1729 03EC                     l1921 023F                     l1913 022E  
                   l1905 021B                     l1657 0F24                     l1649 0EE4  
                   l1681 004B                     l1673 002F                     l2297 0186  
                   l2289 017D                     l1851 0546                     l1843 0533  
                   l1827 04DD                     l1835 0515                     l1819 04B9  
                   l1771 0432                     l1763 042A                     l1755 0422  
                   l1747 0416                     l1739 03FD                     l1931 0256  
                   l1923 0243                     l1907 0220                     l1915 0230  
                   l1659 0F28                     l1683 004F                     l1691 0067  
                   l1675 0040                     l1667 001D                     l2299 0187  
                   l1861 0554                     l1853 0548                     l1845 053A  
                   l1837 0525                     l1829 0501                     l1773 0434  
                   l1765 042C                     l1757 0424                     l1749 041A  
                   l1781 043C                     l1941 0279                     l1933 0257  
                   l1925 0244                     l1917 0238                     l1909 0225  
                   l1677 0041                     l1669 0026                     l1871 056B  
                   l1863 0558                     l1855 054D                     l1847 053E  
                   l1839 052A                     l1791 0475                     l1783 043D  
                   l1775 0436                     l1767 042E                     l1759 0426  
                   l1951 0290                     l1927 0249                     l1935 0259  
                   l1919 023D                     l1679 0049                     l1881 05A2  
                   l1873 0573                     l1865 055E                     l1849 0543  
                   l1857 054F                     l1793 0479                     l1785 0454  
                   l1777 0438                     l1769 0430                     l1961 02BA  
                   l1953 02A0                     l1937 0269                     l1945 0282  
                   l1929 024E                     l1697 006E                     l1689 0057  
                   l1891 05B6                     l1883 05AA                     l1875 0577  
                   l1859 0553                     l1795 047A                     l1787 046F  
                   l1779 043A                     l1963 02BF                     l1971 02D9  
                   l1955 02A8                     l1947 0287                     l1939 0275  
                   l1699 007C                     l1893 05BC                     l1885 05AF  
                   l1877 0594                     l1869 0566                     l1797 0482  
                   l1789 0473                     l1981 02FE                     l1973 02EB  
                   l1965 02CD                     l1957 02B0                     l1895 05C0  
                   l1887 05B0                     l1879 059D                     l1799 0486  
                   l1991 0314                     l1983 0306                     l1975 02EC  
                   l1967 02D1                     l1959 02B8                     l1889 05B4  
                   l1993 031B                     l1985 0308                     l1977 02F4  
                   l1969 02D2                     l1897 0210                     l1987 030F  
                   l1995 031F                     l1979 02F8                     l1899 0214  
                   l1997 0323                     l1989 0313                     l1999 0324  
                   u2000 0558                     u2001 0557                     u2010 055E  
                   u2011 055D                     u2100 05B4                     u2020 0565  
                   u2101 05B3                     u2021 0564                     u2110 05C0  
                   u2030 056B                     u2111 05BF                     u2031 056A  
                   u2040 0577                     u2200 02BF                     u2120 021A  
                   u2041 0576                     u2201 02BE                     u2121 0219  
                   u2050 0585                     u2130 0220                     u2131 021F  
                   u2060 0594                     u2140 0225                     u2061 0593  
                   u2141 0224                     _LATA 010C                     u2070 059D  
                   u2310 0323                     u2230 02D1                     u2150 0243  
                   u1510 0EBB                     _LATB 010D                     u2071 059C  
                   u2055 0581                     u2311 0322                     u2231 02D0  
                   u2215 02C0                     u2151 0242                     u1511 0EBA  
                   _LATC 010E                     u2080 05A2                     u2400 03AC  
                   u2320 0328                     u2160 0249                     u1600 003C  
                   u2081 05A1                     u2401 03AB                     u2321 0327  
                   u2305 0315                     u2225 02C7                     u2161 0248  
                   u2090 05AF                     u2330 033C                     u2250 02EB  
                   u2170 024E                     u1530 0ECB                     u2410 05CC  
                   u1610 004F                     u2091 05AE                     u2331 033B  
                   u2251 02EA                     u2171 024D                     u1531 0ECA  
                   u2411 05CB                     u1611 004E                     u1700 03CA  
                   u2340 0343                     u2260 02FE                     u2180 0269  
                   u1540 0EE4                     u2420 05D2                     u1620 0056  
                   u1701 03C9                     u2341 0342                     u2261 02FD  
                   u2245 02D3                     u2181 0268                     u1541 0EE3  
                   u1525 0EC0                     u2421 05D1                     u1621 0055  
                   u1605 0038                     u1710 03CF                     u2350 0349  
                   u2270 0306                     u2190 0287                     u1550 0F00  
                   u2510 0711                     u2430 05D7                     u1711 03CE  
                   u2351 0348                     u2271 0305                     u2255 02E7  
                   u2191 0286                     u1551 0EFF                     u2431 05D6  
                   u1800 045F                     u1720 03EB                     u2360 0355  
                   u1560 0F0C                     u2600 0780                     u2520 0728  
                   u2440 05F4                     u1640 0066                     u1721 03EA  
                   u2361 0354                     u1561 0F0B                     u2601 077F  
                   u2505 06BF                     u2441 05F3                     u1641 0065  
                   u1810 046F                     u1730 03F2                     u2370 0363  
                   u2290 0313                     u1570 0F28                     u2610 0786  
                   u2450 05FA                     u1650 006D                     _T2PR 0494  
                   u1811 046E                     u1731 03F1                     u2291 0312  
                   u1571 0F27                     u2611 0785                     u2515 070D  
                   u2451 05F9                     u1651 006C                     u1635 0058  
                   u1820 0479                     u1740 03F8                     u2380 037E  
                   u1580 0F56                     u2620 0792                     u2460 05FF  
                   u2700 0097                     u1821 0478                     u1741 03F7  
                   u2381 037D                     u2285 0309                     u1581 0F55  
                   u2621 0791                     u2525 0724                     u2461 05FE  
                   u2701 0096                     u1910 04DD                     u1750 03FD  
                   u2390 0399                     u2630 07A0                     u2550 0750  
                   u2470 0616                     u1670 007C                     u1590 0026  
                   u2710 00B7                     u1911 04DC                     u1751 03FC  
                   u2391 0398                     u2375 035F                     u2551 074F  
                   u2535 0733                     u2471 0615                     u1671 007B  
                   u1591 0025                     u2711 00B6                     u1920 050C  
                   u1840 048D                     u1760 0416                     u2640 07BB  
                   u2480 061B                     u1680 0081                     u2800 011A  
                   u1921 050B                     u1913 04D9                     u1905 04BC  
                   u1841 048C                     u1761 0415                     u2385 037A  
                   u1585 0F52                     u2641 07BA                     u2545 0746  
                   u2481 061A                     u1681 0080                     u1665 006F  
                   u1930 0525                     u1850 0491                     u1770 041A  
                   u1690 03C4                     u2650 07D3                     u2570 0760  
                   u2810 0129                     u2730 00D4                     u1931 0524  
                   u1851 0490                     u1835 047C                     u1771 0419  
                   u1691 03C3                     u2395 0395                     u2651 07D2  
                   u2635 079C                     u2571 075F                     u2811 0128  
                   u2731 00D3                     u1940 052A                     u1860 0496  
                   u1780 0454                     u2660 07ED                     u2580 0765  
                   u2820 012D                     u1941 0529                     u1861 0495  
                   u1781 0453                     u2661 07EC                     u2645 07B7  
                   u2581 0764                     u2565 0752                     u2821 012C  
                   u2805 0116                     u2725 00C8                     u1870 04AB  
                   u1790 045E                     u2590 0779                     u2670 0F72  
                   u2750 00EE                     u2830 01DA                     u1871 04AA  
                   u1791 045C                     u2655 07CF                     u2591 0778  
                   u2495 0694                     u2671 0F71                     u2751 00ED  
                   u2831 01D9                     u1960 053E                     u1880 04AF  
                   u2680 0F93                     u2840 020D                     u1961 053D  
                   u1881 04AE                     u1785 0450                     u2681 0F92  
                   u2745 00E2                     u2841 020C                     u1970 0543  
                   u1890 04B9                     u2770 00FC                     u2690 0093  
                   u1971 0542                     u1955 0534                     u1891 04B8  
                   u2771 00FB                     u2691 0092                     u2835 01D6  
                   u1980 054D                     u2780 0102                     u1981 054C  
                   u2781 0101                     u2765 00F2                     u1990 0553  
                   u2790 0106                     u1991 0552                     u2791 0105  
                   u2857 01C2                     u2867 01FE                     _WPUA 020C  
                   _WPUB 020D                     _WPUC 020E                     _main 0137  
                   btemp 007E                     start 0002          ___fldiv@new_exp 0025  
          ___fltol@sign1 0078          __end_of___fladd 05C2                    ?_main 0070  
        __end_of___fldiv 03BA          __end_of___flmul 07FD          __end_of___fltol 008D  
                  _T2CON 0495                    _TRISA 008C                    _TRISB 008D  
                  _TRISC 008E                    main@i 0065                    status 0003  
                  wtemp0 007E          __initialization 07FD             __end_of_main 0210  
                 ??_main 0063                   _CCPR1H 0292                   _CCPR1L 0291  
                 _ANSELA 018C                   _ANSELB 018D                   _ANSELC 018E  
                 _RA4PPS 0E94                   _RC0PPS 0EA0                   _RA5PPS 0E95  
                 _RC1PPS 0EA1                   _RA6PPS 0E96                   _RC2PPS 0EA2  
                 _RA7PPS 0E97                   _RC3PPS 0EA3                   _RC5PPS 0EA5  
             Servo5@duty 005F                   _OSCCON 009B         __end_of___xxtofl 0137  
                 _Servo5 0F5A             _CCPTMRS1bits 029E             _CCPTMRS2bits 029F  
                 ___flge 0ED0                ??___fladd 004F                ??___fldiv 0078  
              ??___flmul 0035                ??___fltol 0074               ___flge@ff1 0070  
             ___flge@ff2 0074             ___xxtofl@arg 007A             ___xxtofl@exp 0079  
           ___xxtofl@val 0070  __end_of__initialization 07FD               ___fltol@f1 0070  
         __pcstackCOMMON 0070           _OPTION_REGbits 0097        __end_of__Umul8_16 0ED0  
           _T2CLKCONbits 0497                  ?_Servo5 005B               __pmaintext 0137  
                ?___flge 0070                  _CCP1CON 0293                ?___xxtofl 0070  
            Servo5@angle 005B                  _PWM3DCH 0615                  _PWM3DCL 0614  
                _PWM4DCH 0618                  _PWM4DCL 0617                  _PWM5DCH 0D94  
                _PWM5DCL 0D93                  _PWM3CON 0616                  _PWM4CON 0619  
                _PWM5CON 0D9B                  _PWM9DCH 061B                  _PWM9DCL 061A  
                _PWM5OFH 0D98                  _PWM5OFL 0D97                  _PWM5PHH 0D92  
                _PWM9CON 061C                  _PWM5PHL 0D91                  _PWM5PRH 0D96  
                _PWM5PRL 0D95                  ___fladd 03BA                  ___fldiv 0210  
                ___flmul 05C2                  ___fltol 001D                  __ptext1 008D  
                __ptext2 0F5A                  __ptext3 001D                  __ptext4 05C2  
                __ptext5 0EAD                  __ptext6 0ED0                  __ptext7 0210  
                __ptext8 03BA               ??___xxtofl 0074     end_of_initialization 07FD  
              _PWM5LDCON 0D9F                _PWM5OFCON 0DA0                _PORTAbits 000C  
            ___fladd@grs 005A            ___xxtofl@sign 0078              ___fldiv@grs 0027  
            ___fldiv@rem 0020              ___flmul@grs 003B           __end_of_Servo5 1000  
         __end_of___flge 0F5A      start_initialization 07FD                 ??_Servo5 007E  
               ??___flge 0078            _PWM5LDCONbits 0D9F                __Umul8_16 0EAD  
              ___fladd@a 004B                ___fladd@b 0047                ___fldiv@a 0070  
              ___fldiv@b 0074                ___flmul@a 0031                ___flmul@b 002D  
              ___latbits 0003            __pcstackBANK0 0020                 ?___fladd 0047  
               ?___fldiv 0070                 ?___flmul 002D                 ?___fltol 0070  
             ?__Umul8_16 0070                 _LATAbits 010C                 _LATCbits 010E  
               _PWM5TMRH 0D9A                 _PWM5TMRL 0D99                main@i_321 0067  
            ??__Umul8_16 0072                 ___xxtofl 008D               _PWM5CLKCON 0D9E  
 __Umul8_16@multiplicand 0070            ___fladd@signs 0057             ___fladd@aexp 0058  
           ___fladd@bexp 0059     __Umul8_16@multiplier 0078        __Umul8_16@product 0074  
