

Microchip MPLAB XC8 Assembler V2.40 build 20220703182018 
                                                                                               Wed Aug 16 12:46:22 2023

Microchip MPLAB XC8 C Compiler v2.40 (Free license) build 20220703182018 Og1 
     1                           	processor	16F1778
     2                           	pagewidth 120
     3                           	opt	flic
     4                           	psect	idataBANK0,global,class=CODE,delta=2,noexec
     5                           	psect	cinit,global,class=CODE,merge=1,delta=2
     6                           	psect	bssBANK0,global,class=BANK0,space=1,delta=1,noexec
     7                           	psect	dataBANK0,global,class=BANK0,space=1,delta=1,noexec
     8                           	psect	inittext,global,class=CODE,delta=2
     9                           	psect	cstackCOMMON,global,class=COMMON,space=1,delta=1,noexec
    10                           	psect	cstackBANK0,global,class=BANK0,space=1,delta=1,noexec
    11                           	psect	maintext,global,class=CODE,merge=1,split=1,delta=2
    12                           	psect	text1,local,class=CODE,merge=1,delta=2
    13                           	psect	intentry,global,class=CODE,delta=2
    14                           	psect	idloc,global,abs,ovrld,class=IDLOC,space=5,delta=2,noexec
    15                           	psect	config,global,abs,ovrld,class=CONFIG,space=4,delta=2,noexec
    16                           	dabs	1,0x7E,2
    17     0000                     
    18                           ; Version 2.40
    19                           ; Generated 17/11/2021 GMT
    20                           ; 
    21                           ; Copyright © 2021, Microchip Technology Inc. and its subsidiaries ("Microchip")
    22                           ; All rights reserved.
    23                           ; 
    24                           ; This software is developed by Microchip Technology Inc. and its subsidiaries ("Microch
      +                          ip").
    25                           ; 
    26                           ; Redistribution and use in source and binary forms, with or without modification, are
    27                           ; permitted provided that the following conditions are met:
    28                           ; 
    29                           ;     1. Redistributions of source code must retain the above copyright notice, this lis
      +                          t of
    30                           ;        conditions and the following disclaimer.
    31                           ; 
    32                           ;     2. Redistributions in binary form must reproduce the above copyright notice, this 
      +                          list
    33                           ;        of conditions and the following disclaimer in the documentation and/or other
    34                           ;        materials provided with the distribution. Publication is not required when
    35                           ;        this file is used in an embedded application.
    36                           ; 
    37                           ;     3. Microchip's name may not be used to endorse or promote products derived from th
      +                          is
    38                           ;        software without specific prior written permission.
    39                           ; 
    40                           ; THIS SOFTWARE IS PROVIDED BY MICROCHIP "AS IS" AND ANY EXPRESS OR IMPLIED WARRANTIES,
    41                           ; INCLUDING, BUT NOT LIMITED TO, THE IMPLIED WARRANTIES OF MERCHANTABILITY AND FITNESS F
      +                          OR
    42                           ; PURPOSE ARE DISCLAIMED.  IN NO EVENT SHALL MICROCHIP BE LIABLE FOR ANY DIRECT, INDIREC
      +                          T,
    43                           ; INCIDENTAL, SPECIAL, EXEMPLARY, OR CONSEQUENTIAL DAMAGES (INCLUDING BUT NOT LIMITED TO
    44                           ; PROCUREMENT OF SUBSTITUTE GOODS OR SERVICES; LOSS OF USE, DATA OR PROFITS; OR BUSINESS
    45                           ; INTERRUPTION) HOWSOEVER CAUSED AND ON ANY THEORY OF LIABILITY, WHETHER IN CONTRACT, ST
      +                          RICT
    46                           ; LIABILITY, OR TORT (INCLUDING NEGLIGENCE OR OTHERWISE) ARISING IN ANY WAY OUT OF THE U
      +                          SE OF
    47                           ; THIS SOFTWARE, EVEN IF ADVISED OF THE POSSIBILITY OF SUCH DAMAGE.
    48                           ; 
    49                           ; 
    50                           ; Code-generator required, PIC16F1778 Definitions
    51                           ; 
    52                           ; SFR Addresses
    53     0000                     	;# 
    54     0001                     	;# 
    55     0002                     	;# 
    56     0003                     	;# 
    57     0004                     	;# 
    58     0005                     	;# 
    59     0006                     	;# 
    60     0007                     	;# 
    61     0008                     	;# 
    62     0009                     	;# 
    63     000A                     	;# 
    64     000B                     	;# 
    65     000C                     	;# 
    66     000D                     	;# 
    67     000E                     	;# 
    68     0010                     	;# 
    69     0011                     	;# 
    70     0012                     	;# 
    71     0013                     	;# 
    72     0014                     	;# 
    73     0015                     	;# 
    74     0016                     	;# 
    75     0017                     	;# 
    76     0018                     	;# 
    77     0018                     	;# 
    78     0019                     	;# 
    79     001A                     	;# 
    80     001B                     	;# 
    81     001C                     	;# 
    82     001C                     	;# 
    83     001D                     	;# 
    84     001E                     	;# 
    85     001F                     	;# 
    86     008C                     	;# 
    87     008D                     	;# 
    88     008E                     	;# 
    89     0090                     	;# 
    90     0091                     	;# 
    91     0092                     	;# 
    92     0093                     	;# 
    93     0094                     	;# 
    94     0095                     	;# 
    95     0096                     	;# 
    96     0097                     	;# 
    97     0098                     	;# 
    98     0099                     	;# 
    99     009A                     	;# 
   100     009B                     	;# 
   101     009C                     	;# 
   102     009D                     	;# 
   103     009E                     	;# 
   104     009F                     	;# 
   105     010C                     	;# 
   106     010D                     	;# 
   107     010E                     	;# 
   108     0111                     	;# 
   109     0112                     	;# 
   110     0113                     	;# 
   111     0114                     	;# 
   112     0115                     	;# 
   113     0116                     	;# 
   114     0117                     	;# 
   115     0118                     	;# 
   116     0119                     	;# 
   117     011A                     	;# 
   118     011B                     	;# 
   119     011C                     	;# 
   120     011D                     	;# 
   121     018C                     	;# 
   122     018D                     	;# 
   123     018E                     	;# 
   124     0191                     	;# 
   125     0191                     	;# 
   126     0192                     	;# 
   127     0193                     	;# 
   128     0193                     	;# 
   129     0194                     	;# 
   130     0195                     	;# 
   131     0196                     	;# 
   132     0197                     	;# 
   133     0199                     	;# 
   134     0199                     	;# 
   135     0199                     	;# 
   136     019A                     	;# 
   137     019A                     	;# 
   138     019A                     	;# 
   139     019B                     	;# 
   140     019B                     	;# 
   141     019B                     	;# 
   142     019B                     	;# 
   143     019B                     	;# 
   144     019C                     	;# 
   145     019C                     	;# 
   146     019C                     	;# 
   147     019D                     	;# 
   148     019D                     	;# 
   149     019D                     	;# 
   150     019E                     	;# 
   151     019E                     	;# 
   152     019E                     	;# 
   153     019F                     	;# 
   154     019F                     	;# 
   155     019F                     	;# 
   156     019F                     	;# 
   157     019F                     	;# 
   158     020C                     	;# 
   159     020D                     	;# 
   160     020E                     	;# 
   161     0210                     	;# 
   162     0211                     	;# 
   163     0211                     	;# 
   164     0212                     	;# 
   165     0212                     	;# 
   166     0213                     	;# 
   167     0213                     	;# 
   168     0214                     	;# 
   169     0214                     	;# 
   170     0215                     	;# 
   171     0215                     	;# 
   172     0215                     	;# 
   173     0215                     	;# 
   174     0216                     	;# 
   175     0216                     	;# 
   176     0217                     	;# 
   177     0217                     	;# 
   178     021B                     	;# 
   179     021C                     	;# 
   180     021D                     	;# 
   181     021E                     	;# 
   182     021F                     	;# 
   183     028C                     	;# 
   184     028D                     	;# 
   185     028E                     	;# 
   186     0291                     	;# 
   187     0291                     	;# 
   188     0292                     	;# 
   189     0293                     	;# 
   190     0294                     	;# 
   191     0295                     	;# 
   192     0295                     	;# 
   193     0296                     	;# 
   194     0297                     	;# 
   195     0298                     	;# 
   196     0299                     	;# 
   197     0299                     	;# 
   198     029A                     	;# 
   199     029B                     	;# 
   200     029C                     	;# 
   201     029E                     	;# 
   202     029F                     	;# 
   203     030C                     	;# 
   204     030D                     	;# 
   205     030E                     	;# 
   206     0315                     	;# 
   207     0316                     	;# 
   208     0317                     	;# 
   209     0318                     	;# 
   210     0319                     	;# 
   211     031B                     	;# 
   212     031C                     	;# 
   213     031D                     	;# 
   214     031E                     	;# 
   215     031F                     	;# 
   216     038C                     	;# 
   217     038D                     	;# 
   218     038E                     	;# 
   219     0390                     	;# 
   220     0391                     	;# 
   221     0392                     	;# 
   222     0393                     	;# 
   223     0394                     	;# 
   224     0395                     	;# 
   225     0396                     	;# 
   226     0397                     	;# 
   227     0398                     	;# 
   228     0399                     	;# 
   229     039D                     	;# 
   230     039E                     	;# 
   231     039F                     	;# 
   232     040D                     	;# 
   233     040F                     	;# 
   234     040F                     	;# 
   235     0410                     	;# 
   236     0411                     	;# 
   237     0412                     	;# 
   238     0413                     	;# 
   239     0413                     	;# 
   240     0414                     	;# 
   241     0414                     	;# 
   242     0415                     	;# 
   243     0416                     	;# 
   244     0417                     	;# 
   245     0418                     	;# 
   246     041A                     	;# 
   247     041A                     	;# 
   248     041B                     	;# 
   249     041B                     	;# 
   250     041C                     	;# 
   251     041D                     	;# 
   252     041E                     	;# 
   253     041F                     	;# 
   254     048E                     	;# 
   255     048E                     	;# 
   256     048F                     	;# 
   257     0490                     	;# 
   258     0491                     	;# 
   259     0492                     	;# 
   260     0493                     	;# 
   261     0493                     	;# 
   262     0494                     	;# 
   263     0494                     	;# 
   264     0495                     	;# 
   265     0496                     	;# 
   266     0497                     	;# 
   267     0498                     	;# 
   268     049A                     	;# 
   269     049A                     	;# 
   270     049B                     	;# 
   271     049B                     	;# 
   272     049C                     	;# 
   273     049D                     	;# 
   274     049E                     	;# 
   275     049F                     	;# 
   276     050F                     	;# 
   277     0510                     	;# 
   278     0511                     	;# 
   279     0512                     	;# 
   280     0513                     	;# 
   281     0514                     	;# 
   282     0515                     	;# 
   283     0516                     	;# 
   284     0517                     	;# 
   285     0518                     	;# 
   286     0519                     	;# 
   287     051A                     	;# 
   288     058D                     	;# 
   289     058E                     	;# 
   290     058F                     	;# 
   291     058F                     	;# 
   292     058F                     	;# 
   293     0590                     	;# 
   294     0590                     	;# 
   295     0591                     	;# 
   296     0592                     	;# 
   297     0592                     	;# 
   298     0592                     	;# 
   299     0593                     	;# 
   300     0593                     	;# 
   301     0594                     	;# 
   302     0595                     	;# 
   303     0595                     	;# 
   304     0596                     	;# 
   305     0597                     	;# 
   306     0597                     	;# 
   307     0598                     	;# 
   308     0599                     	;# 
   309     0599                     	;# 
   310     0599                     	;# 
   311     059A                     	;# 
   312     059A                     	;# 
   313     059E                     	;# 
   314     059F                     	;# 
   315     059F                     	;# 
   316     0614                     	;# 
   317     0614                     	;# 
   318     0615                     	;# 
   319     0616                     	;# 
   320     0617                     	;# 
   321     0617                     	;# 
   322     0618                     	;# 
   323     0619                     	;# 
   324     061A                     	;# 
   325     061A                     	;# 
   326     061B                     	;# 
   327     061C                     	;# 
   328     068D                     	;# 
   329     068E                     	;# 
   330     068F                     	;# 
   331     0690                     	;# 
   332     0691                     	;# 
   333     0692                     	;# 
   334     0693                     	;# 
   335     0694                     	;# 
   336     0695                     	;# 
   337     0696                     	;# 
   338     0697                     	;# 
   339     0698                     	;# 
   340     0699                     	;# 
   341     069A                     	;# 
   342     069B                     	;# 
   343     069C                     	;# 
   344     069D                     	;# 
   345     069E                     	;# 
   346     069F                     	;# 
   347     070D                     	;# 
   348     070E                     	;# 
   349     070F                     	;# 
   350     0710                     	;# 
   351     0711                     	;# 
   352     0712                     	;# 
   353     0713                     	;# 
   354     0714                     	;# 
   355     0715                     	;# 
   356     0716                     	;# 
   357     0717                     	;# 
   358     0718                     	;# 
   359     0719                     	;# 
   360     071A                     	;# 
   361     071B                     	;# 
   362     071C                     	;# 
   363     071D                     	;# 
   364     071E                     	;# 
   365     071F                     	;# 
   366     078E                     	;# 
   367     078F                     	;# 
   368     0790                     	;# 
   369     0791                     	;# 
   370     0792                     	;# 
   371     0793                     	;# 
   372     0794                     	;# 
   373     0795                     	;# 
   374     0796                     	;# 
   375     0797                     	;# 
   376     0798                     	;# 
   377     0799                     	;# 
   378     079A                     	;# 
   379     079B                     	;# 
   380     079C                     	;# 
   381     079D                     	;# 
   382     079E                     	;# 
   383     079F                     	;# 
   384     080D                     	;# 
   385     080E                     	;# 
   386     080F                     	;# 
   387     0810                     	;# 
   388     0811                     	;# 
   389     0812                     	;# 
   390     0813                     	;# 
   391     0814                     	;# 
   392     0815                     	;# 
   393     0816                     	;# 
   394     0817                     	;# 
   395     0818                     	;# 
   396     0819                     	;# 
   397     081A                     	;# 
   398     081B                     	;# 
   399     081C                     	;# 
   400     081D                     	;# 
   401     081E                     	;# 
   402     081F                     	;# 
   403     090C                     	;# 
   404     090D                     	;# 
   405     090E                     	;# 
   406     090F                     	;# 
   407     0910                     	;# 
   408     0911                     	;# 
   409     0912                     	;# 
   410     0913                     	;# 
   411     0914                     	;# 
   412     0915                     	;# 
   413     0916                     	;# 
   414     0917                     	;# 
   415     0D8E                     	;# 
   416     0D8F                     	;# 
   417     0D90                     	;# 
   418     0D91                     	;# 
   419     0D91                     	;# 
   420     0D92                     	;# 
   421     0D93                     	;# 
   422     0D93                     	;# 
   423     0D94                     	;# 
   424     0D95                     	;# 
   425     0D95                     	;# 
   426     0D96                     	;# 
   427     0D97                     	;# 
   428     0D97                     	;# 
   429     0D98                     	;# 
   430     0D99                     	;# 
   431     0D99                     	;# 
   432     0D9A                     	;# 
   433     0D9B                     	;# 
   434     0D9C                     	;# 
   435     0D9C                     	;# 
   436     0D9D                     	;# 
   437     0D9D                     	;# 
   438     0D9E                     	;# 
   439     0D9F                     	;# 
   440     0DA0                     	;# 
   441     0DA1                     	;# 
   442     0DA1                     	;# 
   443     0DA2                     	;# 
   444     0DA3                     	;# 
   445     0DA3                     	;# 
   446     0DA4                     	;# 
   447     0DA5                     	;# 
   448     0DA5                     	;# 
   449     0DA6                     	;# 
   450     0DA7                     	;# 
   451     0DA7                     	;# 
   452     0DA8                     	;# 
   453     0DA9                     	;# 
   454     0DA9                     	;# 
   455     0DAA                     	;# 
   456     0DAB                     	;# 
   457     0DAC                     	;# 
   458     0DAC                     	;# 
   459     0DAD                     	;# 
   460     0DAD                     	;# 
   461     0DAE                     	;# 
   462     0DAF                     	;# 
   463     0DB0                     	;# 
   464     0DB1                     	;# 
   465     0DB1                     	;# 
   466     0DB2                     	;# 
   467     0DB3                     	;# 
   468     0DB3                     	;# 
   469     0DB4                     	;# 
   470     0DB5                     	;# 
   471     0DB5                     	;# 
   472     0DB6                     	;# 
   473     0DB7                     	;# 
   474     0DB7                     	;# 
   475     0DB8                     	;# 
   476     0DB9                     	;# 
   477     0DB9                     	;# 
   478     0DBA                     	;# 
   479     0DBB                     	;# 
   480     0DBC                     	;# 
   481     0DBC                     	;# 
   482     0DBD                     	;# 
   483     0DBD                     	;# 
   484     0DBE                     	;# 
   485     0DBF                     	;# 
   486     0DC0                     	;# 
   487     0E0C                     	;# 
   488     0E0D                     	;# 
   489     0E0E                     	;# 
   490     0E0F                     	;# 
   491     0E10                     	;# 
   492     0E11                     	;# 
   493     0E12                     	;# 
   494     0E13                     	;# 
   495     0E14                     	;# 
   496     0E15                     	;# 
   497     0E15                     	;# 
   498     0E15                     	;# 
   499     0E16                     	;# 
   500     0E16                     	;# 
   501     0E16                     	;# 
   502     0E17                     	;# 
   503     0E17                     	;# 
   504     0E17                     	;# 
   505     0E18                     	;# 
   506     0E18                     	;# 
   507     0E18                     	;# 
   508     0E19                     	;# 
   509     0E1A                     	;# 
   510     0E1B                     	;# 
   511     0E1D                     	;# 
   512     0E1E                     	;# 
   513     0E1F                     	;# 
   514     0E21                     	;# 
   515     0E22                     	;# 
   516     0E23                     	;# 
   517     0E24                     	;# 
   518     0E25                     	;# 
   519     0E26                     	;# 
   520     0E27                     	;# 
   521     0E28                     	;# 
   522     0E29                     	;# 
   523     0E2D                     	;# 
   524     0E2E                     	;# 
   525     0E2F                     	;# 
   526     0E30                     	;# 
   527     0E31                     	;# 
   528     0E32                     	;# 
   529     0E35                     	;# 
   530     0E36                     	;# 
   531     0E37                     	;# 
   532     0E38                     	;# 
   533     0E39                     	;# 
   534     0E3A                     	;# 
   535     0E3B                     	;# 
   536     0E3C                     	;# 
   537     0E3D                     	;# 
   538     0E3E                     	;# 
   539     0E90                     	;# 
   540     0E91                     	;# 
   541     0E92                     	;# 
   542     0E93                     	;# 
   543     0E94                     	;# 
   544     0E95                     	;# 
   545     0E96                     	;# 
   546     0E97                     	;# 
   547     0E98                     	;# 
   548     0E99                     	;# 
   549     0E9A                     	;# 
   550     0E9B                     	;# 
   551     0E9C                     	;# 
   552     0E9D                     	;# 
   553     0E9E                     	;# 
   554     0E9F                     	;# 
   555     0EA0                     	;# 
   556     0EA1                     	;# 
   557     0EA2                     	;# 
   558     0EA3                     	;# 
   559     0EA4                     	;# 
   560     0EA5                     	;# 
   561     0EA6                     	;# 
   562     0EA7                     	;# 
   563     0F0F                     	;# 
   564     0F10                     	;# 
   565     0F11                     	;# 
   566     0F12                     	;# 
   567     0F13                     	;# 
   568     0F14                     	;# 
   569     0F15                     	;# 
   570     0F16                     	;# 
   571     0F17                     	;# 
   572     0F18                     	;# 
   573     0F19                     	;# 
   574     0F1A                     	;# 
   575     0F1B                     	;# 
   576     0F1C                     	;# 
   577     0F1D                     	;# 
   578     0F1E                     	;# 
   579     0F1F                     	;# 
   580     0F20                     	;# 
   581     0F21                     	;# 
   582     0F22                     	;# 
   583     0F23                     	;# 
   584     0F24                     	;# 
   585     0F25                     	;# 
   586     0F26                     	;# 
   587     0F27                     	;# 
   588     0F28                     	;# 
   589     0F29                     	;# 
   590     0F2A                     	;# 
   591     0F2B                     	;# 
   592     0F2C                     	;# 
   593     0F2D                     	;# 
   594     0F2E                     	;# 
   595     0F2F                     	;# 
   596     0F30                     	;# 
   597     0F31                     	;# 
   598     0F32                     	;# 
   599     0F33                     	;# 
   600     0F34                     	;# 
   601     0F35                     	;# 
   602     0F36                     	;# 
   603     0F37                     	;# 
   604     0FE4                     	;# 
   605     0FE5                     	;# 
   606     0FE6                     	;# 
   607     0FE7                     	;# 
   608     0FE8                     	;# 
   609     0FE9                     	;# 
   610     0FEA                     	;# 
   611     0FEB                     	;# 
   612     0FED                     	;# 
   613     0FEE                     	;# 
   614     0FEF                     	;# 
   615                           
   616                           	psect	idataBANK0
   617     010F                     __pidataBANK0:
   618                           
   619                           ;initializer for main@F12352
   620     010F  3450               	retlw	80
   621     0110  346C               	retlw	108
   622     0111  3465               	retlw	101
   623     0112  3461               	retlw	97
   624     0113  3473               	retlw	115
   625     0114  3465               	retlw	101
   626     0115  3420               	retlw	32
   627     0116  3465               	retlw	101
   628     0117  346E               	retlw	110
   629     0118  3474               	retlw	116
   630     0119  3465               	retlw	101
   631     011A  3472               	retlw	114
   632     011B  3420               	retlw	32
   633     011C  3461               	retlw	97
   634     011D  3420               	retlw	32
   635     011E  3473               	retlw	115
   636     011F  3474               	retlw	116
   637     0120  3472               	retlw	114
   638     0121  3469               	retlw	105
   639     0122  346E               	retlw	110
   640     0123  3467               	retlw	103
   641     0124  340D               	retlw	13
   642     0125  340A               	retlw	10
   643     0126  3400               	retlw	0
   644     000C                     _PORTAbits	set	12
   645     000B                     _INTCONbits	set	11
   646     0011                     _PIR1bits	set	17
   647     0091                     _PIE1bits	set	145
   648     0097                     _OPTION_REGbits	set	151
   649     008E                     _TRISC	set	142
   650     008D                     _TRISB	set	141
   651     008C                     _TRISA	set	140
   652     009B                     _OSCCON	set	155
   653     010E                     _LATCbits	set	270
   654     010C                     _LATAbits	set	268
   655     010E                     _LATC	set	270
   656     010D                     _LATB	set	269
   657     010C                     _LATA	set	268
   658     0199                     _RC1REG	set	409
   659     019D                     _RC1STAbits	set	413
   660     019A                     _TX1REG	set	410
   661     019C                     _SP1BRGH	set	412
   662     019B                     _SP1BRGL	set	411
   663     019F                     _BAUD1CON	set	415
   664     019D                     _RC1STA	set	413
   665     019E                     _TX1STA	set	414
   666     018E                     _ANSELC	set	398
   667     018D                     _ANSELB	set	397
   668     018C                     _ANSELA	set	396
   669     020E                     _WPUC	set	526
   670     020D                     _WPUB	set	525
   671     020C                     _WPUA	set	524
   672     0291                     _CCPR1L	set	657
   673     0292                     _CCPR1H	set	658
   674     029E                     _CCPTMRS1bits	set	670
   675     0293                     _CCP1CON	set	659
   676     029F                     _CCPTMRS2bits	set	671
   677     0494                     _T2PR	set	1172
   678     0495                     _T2CON	set	1173
   679     0497                     _T2CLKCONbits	set	1175
   680     061A                     _PWM9DCL	set	1562
   681     061B                     _PWM9DCH	set	1563
   682     061C                     _PWM9CON	set	1564
   683     0617                     _PWM4DCL	set	1559
   684     0618                     _PWM4DCH	set	1560
   685     0619                     _PWM4CON	set	1561
   686     0614                     _PWM3DCL	set	1556
   687     0615                     _PWM3DCH	set	1557
   688     0616                     _PWM3CON	set	1558
   689     0DAF                     _PWM6LDCONbits	set	3503
   690     0D9F                     _PWM5LDCONbits	set	3487
   691     0DA9                     _PWM6TMRL	set	3497
   692     0DAA                     _PWM6TMRH	set	3498
   693     0DA7                     _PWM6OFL	set	3495
   694     0DA8                     _PWM6OFH	set	3496
   695     0DA5                     _PWM6PRL	set	3493
   696     0DA6                     _PWM6PRH	set	3494
   697     0DA3                     _PWM6DCL	set	3491
   698     0DA4                     _PWM6DCH	set	3492
   699     0DA1                     _PWM6PHL	set	3489
   700     0DA2                     _PWM6PHH	set	3490
   701     0DB0                     _PWM6OFCON	set	3504
   702     0DAF                     _PWM6LDCON	set	3503
   703     0DAE                     _PWM6CLKCON	set	3502
   704     0DAB                     _PWM6CON	set	3499
   705     0D99                     _PWM5TMRL	set	3481
   706     0D9A                     _PWM5TMRH	set	3482
   707     0D97                     _PWM5OFL	set	3479
   708     0D98                     _PWM5OFH	set	3480
   709     0D95                     _PWM5PRL	set	3477
   710     0D96                     _PWM5PRH	set	3478
   711     0D93                     _PWM5DCL	set	3475
   712     0D94                     _PWM5DCH	set	3476
   713     0D91                     _PWM5PHL	set	3473
   714     0D92                     _PWM5PHH	set	3474
   715     0DA0                     _PWM5OFCON	set	3488
   716     0D9F                     _PWM5LDCON	set	3487
   717     0D9E                     _PWM5CLKCON	set	3486
   718     0D9B                     _PWM5CON	set	3483
   719     0E3D                     _RXPPS	set	3645
   720     0EA2                     _RC2PPS	set	3746
   721     0EA0                     _RC0PPS	set	3744
   722     0E96                     _RA6PPS	set	3734
   723     0E94                     _RA4PPS	set	3732
   724     0E9C                     _RB4PPS	set	3740
   725     0EA4                     _RC4PPS	set	3748
   726     0EA5                     _RC5PPS	set	3749
   727     0EA3                     _RC3PPS	set	3747
   728     0EA1                     _RC1PPS	set	3745
   729     0E97                     _RA7PPS	set	3735
   730     0E95                     _RA5PPS	set	3733
   731                           
   732                           	psect	cinit
   733     0020                     start_initialization:	
   734                           ; #config settings
   735                           
   736     0020                     __initialization:
   737                           
   738                           ; Initialize objects allocated to BANK0
   739     0020  300F               	movlw	low __pidataBANK0
   740     0021  0084               	movwf	4
   741     0022  3081               	movlw	(high __pidataBANK0)| (0+128)
   742     0023  0085               	movwf	5
   743     0024  303A               	movlw	low __pdataBANK0
   744     0025  0086               	movwf	6
   745     0026  3000               	movlw	high __pdataBANK0
   746     0027  0087               	movwf	7
   747     0028  3018               	movlw	24
   748     0029  3181  2132  3180   	fcall	init_ram
   749                           
   750                           ; Clear objects allocated to BANK0
   751     002C  01D2               	clrf	__pbssBANK0& (0+127)
   752     002D                     end_of_initialization:	
   753                           ;End of C runtime variable initialization code
   754                           
   755     002D                     __end_of__initialization:
   756     002D  107E               	bcf	int$flags,0	;clear compiler interrupt flag (level 1)
   757     002E  0020               	movlb	0
   758     002F  3180  2831         	ljmp	_main	;jump to C main() function
   759                           
   760                           	psect	bssBANK0
   761     0052                     __pbssBANK0:
   762     0052                     _g_ReadData:
   763     0052                     	ds	1
   764                           
   765                           	psect	dataBANK0
   766     003A                     __pdataBANK0:
   767     003A                     main@F12352:
   768     003A                     	ds	24
   769                           
   770                           	psect	inittext
   771     0132                     init_ram:
   772     0132  00FE               	movwf	btemp
   773     0133                     initloop:
   774     0133  0012               	moviw fsr0++
   775     0134  001E               	movwi fsr1++
   776     0135  0BFE               	decfsz	btemp,f
   777     0136  2933               	goto	initloop
   778     0137  3400               	retlw	0
   779                           
   780                           	psect	cstackCOMMON
   781     0070                     __pcstackCOMMON:
   782     0070                     ?_DataWrite:
   783     0070                     ??_DataWrite:	
   784                           ; 1 bytes @ 0x0
   785                           
   786     0070                     ?_main:	
   787                           ; 1 bytes @ 0x0
   788                           
   789     0070                     ?_ISR:	
   790                           ; 1 bytes @ 0x0
   791                           
   792     0070                     ??_ISR:	
   793                           ; 1 bytes @ 0x0
   794                           
   795     0070                     DataWrite@data:	
   796                           ; 1 bytes @ 0x0
   797                           
   798                           
   799                           ; 1 bytes @ 0x0
   800     0070                     	ds	1
   801     0071                     ??_main:
   802                           
   803                           ; 1 bytes @ 0x1
   804     0071                     	ds	2
   805                           
   806                           	psect	cstackBANK0
   807     0020                     __pcstackBANK0:
   808     0020                     main@str:
   809                           
   810                           ; 24 bytes @ 0x0
   811     0020                     	ds	24
   812     0038                     main@i:
   813                           
   814                           ; 2 bytes @ 0x18
   815     0038                     	ds	2
   816                           
   817                           	psect	maintext
   818     0031                     __pmaintext:	
   819 ;;
   820 ;;Main: autosize = 0, tempsize = 2, incstack = 0, save=0
   821 ;;
   822 ;; *************** function _main *****************
   823 ;; Defined at:
   824 ;;		line 58 in file "main.c"
   825 ;; Parameters:    Size  Location     Type
   826 ;;		None
   827 ;; Auto vars:     Size  Location     Type
   828 ;;  i               2   24[BANK0 ] int 
   829 ;;  str            24    0[BANK0 ] unsigned char [24]
   830 ;; Return value:  Size  Location     Type
   831 ;;                  1    wreg      void 
   832 ;; Registers used:
   833 ;;		wreg, fsr0l, fsr0h, fsr1l, fsr1h, status,2, status,0, pclath, cstack
   834 ;; Tracked objects:
   835 ;;		On entry : B1F/0
   836 ;;		On exit  : 0/0
   837 ;;		Unchanged: 0/0
   838 ;; Data sizes:     COMMON   BANK0   BANK1   BANK2   BANK3   BANK4   BANK5   BANK6   BANK7   BANK8   BANK9  BANK10  BANK1
      +1  BANK12  BANK13  BANK14  BANK15  BANK16  BANK17  BANK18  BANK19  BANK20  BANK21  BANK22  BANK23  BANK24  BANK25
   839 ;;      Params:         0       0       0       0       0       0       0       0       0       0       0       0       
      +0       0       0       0       0       0       0       0       0       0       0       0       0       0       0
   840 ;;      Locals:         0      26       0       0       0       0       0       0       0       0       0       0       
      +0       0       0       0       0       0       0       0       0       0       0       0       0       0       0
   841 ;;      Temps:          2       0       0       0       0       0       0       0       0       0       0       0       
      +0       0       0       0       0       0       0       0       0       0       0       0       0       0       0
   842 ;;      Totals:         2      26       0       0       0       0       0       0       0       0       0       0       
      +0       0       0       0       0       0       0       0       0       0       0       0       0       0       0
   843 ;;Total ram usage:       28 bytes
   844 ;; Hardware stack levels required when called: 2
   845 ;; This function calls:
   846 ;;		_DataWrite
   847 ;; This function is called by:
   848 ;;		Startup code after reset
   849 ;; This function uses a non-reentrant model
   850 ;;
   851                           
   852     0031                     _main:	
   853                           ;psect for function _main
   854                           
   855     0031                     l1219:	
   856                           ;incstack = 0
   857                           ; Regs used in _main: [wreg-fsr1h+status,2+status,0+pclath+cstack]
   858                           
   859                           
   860                           ;main.c: 60:     OSCCON = 0b11110000;
   861     0031  30F0               	movlw	240
   862     0032  0021               	movlb	1	; select bank1
   863     0033  009B               	movwf	27	;volatile
   864     0034                     l1221:
   865                           
   866                           ;main.c: 63:     ANSELA = 0x00;
   867     0034  0023               	movlb	3	; select bank3
   868     0035  018C               	clrf	12	;volatile
   869     0036                     l1223:
   870                           
   871                           ;main.c: 64:     ANSELB = 0b00001111;
   872     0036  300F               	movlw	15
   873     0037  008D               	movwf	13	;volatile
   874                           
   875                           ;main.c: 65:     ANSELC = 0x00;
   876     0038  018E               	clrf	14	;volatile
   877     0039                     l1225:
   878                           
   879                           ;main.c: 66:     TRISA = 0b00001111;
   880     0039  300F               	movlw	15
   881     003A  0021               	movlb	1	; select bank1
   882     003B  008C               	movwf	12	;volatile
   883     003C                     l1227:
   884                           
   885                           ;main.c: 67:     TRISB = 0b00101111;
   886     003C  302F               	movlw	47
   887     003D  008D               	movwf	13	;volatile
   888                           
   889                           ;main.c: 68:     TRISC = 0x00;
   890     003E  018E               	clrf	14	;volatile
   891                           
   892                           ;main.c: 69:     LATA = 0x00;
   893     003F  0022               	movlb	2	; select bank2
   894     0040  018C               	clrf	12	;volatile
   895                           
   896                           ;main.c: 70:     LATB = 0x00;
   897     0041  018D               	clrf	13	;volatile
   898                           
   899                           ;main.c: 71:     LATC = 0x00;
   900     0042  018E               	clrf	14	;volatile
   901     0043                     l1229:
   902                           
   903                           ;main.c: 74:     OPTION_REGbits.nWPUEN = 0;
   904     0043  0021               	movlb	1	; select bank1
   905     0044  1397               	bcf	23,7	;volatile
   906     0045                     l1231:
   907                           
   908                           ;main.c: 75:     WPUA = 0b00001111;
   909     0045  300F               	movlw	15
   910     0046  0024               	movlb	4	; select bank4
   911     0047  008C               	movwf	12	;volatile
   912     0048                     l1233:
   913                           
   914                           ;main.c: 76:     WPUB = 0x00;
   915     0048  018D               	clrf	13	;volatile
   916     0049                     l1235:
   917                           
   918                           ;main.c: 77:     WPUC = 0x00;
   919     0049  018E               	clrf	14	;volatile
   920     004A                     l1237:
   921                           
   922                           ;main.c: 80:     T2CLKCONbits.CS = 0b0001;
   923     004A  0029               	movlb	9	; select bank9
   924     004B  0817               	movf	23,w	;volatile
   925     004C  39F0               	andlw	-16
   926     004D  3801               	iorlw	1
   927     004E  0097               	movwf	23	;volatile
   928     004F                     l1239:
   929                           
   930                           ;main.c: 81:     T2CON = 0b10000000;
   931     004F  3080               	movlw	128
   932     0050  0095               	movwf	21	;volatile
   933     0051                     l1241:
   934                           
   935                           ;main.c: 82:     T2PR = 0xFF;
   936     0051  30FF               	movlw	255
   937     0052  0094               	movwf	20	;volatile
   938     0053                     l1243:
   939                           
   940                           ;main.c: 85:     RA5PPS = 0b011001;
   941     0053  3019               	movlw	25
   942     0054  003D               	movlb	29	; select bank29
   943     0055  0095               	movwf	21	;volatile
   944     0056                     l1245:
   945                           
   946                           ;main.c: 86:     PWM3CON = 0b10000000;
   947     0056  3080               	movlw	128
   948     0057  002C               	movlb	12	; select bank12
   949     0058  0096               	movwf	22	;volatile
   950     0059                     l1247:
   951                           
   952                           ;main.c: 87:     CCPTMRS2bits.P3TSEL = 0b00;
   953     0059  30FC               	movlw	-4
   954     005A  0025               	movlb	5	; select bank5
   955     005B  059F               	andwf	31,f	;volatile
   956     005C                     l1249:
   957                           
   958                           ;main.c: 88:     PWM3DCH = 0x00;
   959     005C  002C               	movlb	12	; select bank12
   960     005D  0195               	clrf	21	;volatile
   961     005E                     l1251:
   962                           
   963                           ;main.c: 89:     PWM3DCL = 0x00;
   964     005E  0194               	clrf	20	;volatile
   965     005F                     l1253:
   966                           
   967                           ;main.c: 92:     RA7PPS = 0b011010;
   968     005F  301A               	movlw	26
   969     0060  003D               	movlb	29	; select bank29
   970     0061  0097               	movwf	23	;volatile
   971     0062                     l1255:
   972                           
   973                           ;main.c: 93:     PWM4CON = 0b10000000;
   974     0062  3080               	movlw	128
   975     0063  002C               	movlb	12	; select bank12
   976     0064  0099               	movwf	25	;volatile
   977     0065                     l1257:
   978                           
   979                           ;main.c: 94:     CCPTMRS2bits.P4TSEL = 0b00;
   980     0065  30F3               	movlw	-13
   981     0066  0025               	movlb	5	; select bank5
   982     0067  059F               	andwf	31,f	;volatile
   983     0068                     l1259:
   984                           
   985                           ;main.c: 95:     PWM4DCH = 0x00;
   986     0068  002C               	movlb	12	; select bank12
   987     0069  0198               	clrf	24	;volatile
   988     006A                     l1261:
   989                           
   990                           ;main.c: 96:     PWM4DCL = 0x00;
   991     006A  0197               	clrf	23	;volatile
   992     006B                     l1263:
   993                           
   994                           ;main.c: 99:     RC1PPS = 0b011011;
   995     006B  301B               	movlw	27
   996     006C  003D               	movlb	29	; select bank29
   997     006D  00A1               	movwf	33	;volatile
   998     006E                     l1265:
   999                           
  1000                           ;main.c: 100:     PWM9CON = 0b10000000;
  1001     006E  3080               	movlw	128
  1002     006F  002C               	movlb	12	; select bank12
  1003     0070  009C               	movwf	28	;volatile
  1004     0071                     l1267:
  1005                           
  1006                           ;main.c: 101:     CCPTMRS2bits.P9TSEL = 0b00;
  1007     0071  30CF               	movlw	-49
  1008     0072  0025               	movlb	5	; select bank5
  1009     0073  059F               	andwf	31,f	;volatile
  1010     0074                     l1269:
  1011                           
  1012                           ;main.c: 102:     PWM9DCH = 0x00;
  1013     0074  002C               	movlb	12	; select bank12
  1014     0075  019B               	clrf	27	;volatile
  1015     0076                     l1271:
  1016                           
  1017                           ;main.c: 103:     PWM9DCL = 0x00;
  1018     0076  019A               	clrf	26	;volatile
  1019     0077                     l1273:
  1020                           
  1021                           ;main.c: 106:     RC3PPS = 0b010101;
  1022     0077  3015               	movlw	21
  1023     0078  003D               	movlb	29	; select bank29
  1024     0079  00A3               	movwf	35	;volatile
  1025     007A                     l1275:
  1026                           
  1027                           ;main.c: 107:     CCP1CON = 0b10011100;
  1028     007A  309C               	movlw	156
  1029     007B  0025               	movlb	5	; select bank5
  1030     007C  0093               	movwf	19	;volatile
  1031     007D                     l1277:
  1032                           
  1033                           ;main.c: 108:     CCPTMRS1bits.C1TSEL = 0b00;
  1034     007D  30FC               	movlw	-4
  1035     007E  059E               	andwf	30,f	;volatile
  1036     007F                     l1279:
  1037                           
  1038                           ;main.c: 109:     CCPR1H = 0x00;
  1039     007F  0192               	clrf	18	;volatile
  1040     0080                     l1281:
  1041                           
  1042                           ;main.c: 110:     CCPR1L = 0x00;
  1043     0080  0191               	clrf	17	;volatile
  1044     0081                     l1283:
  1045                           
  1046                           ;main.c: 113:     RC5PPS = 0b011101;
  1047     0081  301D               	movlw	29
  1048     0082  003D               	movlb	29	; select bank29
  1049     0083  00A5               	movwf	37	;volatile
  1050     0084                     l1285:
  1051                           
  1052                           ;main.c: 114:     PWM5CON = 0b10000000;
  1053     0084  3080               	movlw	128
  1054     0085  003B               	movlb	27	; select bank27
  1055     0086  009B               	movwf	27	;volatile
  1056     0087                     l1287:
  1057                           
  1058                           ;main.c: 115:     PWM5CLKCON = 0b01000000;
  1059     0087  3040               	movlw	64
  1060     0088  009E               	movwf	30	;volatile
  1061     0089                     l1289:
  1062                           
  1063                           ;main.c: 116:     PWM5LDCON = 0x00;
  1064     0089  019F               	clrf	31	;volatile
  1065     008A                     l1291:
  1066                           
  1067                           ;main.c: 117:     PWM5OFCON = 0x00;
  1068     008A  01A0               	clrf	32	;volatile
  1069     008B                     l1293:
  1070                           
  1071                           ;main.c: 118:     PWM5PHH = 0x00;
  1072     008B  0192               	clrf	18	;volatile
  1073     008C                     l1295:
  1074                           
  1075                           ;main.c: 119:     PWM5PHL = 0x00;
  1076     008C  0191               	clrf	17	;volatile
  1077     008D                     l1297:
  1078                           
  1079                           ;main.c: 120:     PWM5DCH = (2899 >> 8) & 0x00FF;
  1080     008D  300B               	movlw	11
  1081     008E  0094               	movwf	20	;volatile
  1082     008F                     l1299:
  1083                           
  1084                           ;main.c: 121:     PWM5DCL = 2899 & 0x00FF;
  1085     008F  3053               	movlw	83
  1086     0090  0093               	movwf	19	;volatile
  1087     0091                     l1301:
  1088                           
  1089                           ;main.c: 122:     PWM5PRH = (39999 >> 8) & 0x00FF;
  1090     0091  309C               	movlw	156
  1091     0092  0096               	movwf	22	;volatile
  1092     0093                     l1303:
  1093                           
  1094                           ;main.c: 123:     PWM5PRL = 39999 & 0x00FF;
  1095     0093  303F               	movlw	63
  1096     0094  0095               	movwf	21	;volatile
  1097     0095                     l1305:
  1098                           
  1099                           ;main.c: 124:     PWM5OFH = 0x00;
  1100     0095  0198               	clrf	24	;volatile
  1101     0096                     l1307:
  1102                           
  1103                           ;main.c: 125:     PWM5OFL = 0x00;
  1104     0096  0197               	clrf	23	;volatile
  1105     0097                     l1309:
  1106                           
  1107                           ;main.c: 126:     PWM5TMRH = 0x00;
  1108     0097  019A               	clrf	26	;volatile
  1109     0098                     l1311:
  1110                           
  1111                           ;main.c: 127:     PWM5TMRL = 0x00;
  1112     0098  0199               	clrf	25	;volatile
  1113     0099                     l1313:
  1114                           
  1115                           ;main.c: 130:     _delay((unsigned long)((500)*(32000000/4000.0)));
  1116     0099  3015               	movlw	21
  1117     009A  00F2               	movwf	??_main+1
  1118     009B  304B               	movlw	75
  1119     009C  00F1               	movwf	??_main
  1120     009D  30BE               	movlw	190
  1121     009E                     u337:
  1122     009E  0B89               	decfsz	9,f
  1123     009F  289E               	goto	u337
  1124     00A0  0BF1               	decfsz	??_main,f
  1125     00A1  289E               	goto	u337
  1126     00A2  0BF2               	decfsz	??_main+1,f
  1127     00A3  289E               	goto	u337
  1128     00A4  3200               	nop2
  1129     00A5                     l1315:
  1130                           
  1131                           ;main.c: 131:     RC4PPS = 0b011110;
  1132     00A5  301E               	movlw	30
  1133     00A6  003D               	movlb	29	; select bank29
  1134     00A7  00A4               	movwf	36	;volatile
  1135     00A8                     l1317:
  1136                           
  1137                           ;main.c: 132:     PWM6CON = 0b10000000;
  1138     00A8  3080               	movlw	128
  1139     00A9  003B               	movlb	27	; select bank27
  1140     00AA  00AB               	movwf	43	;volatile
  1141     00AB                     l1319:
  1142                           
  1143                           ;main.c: 133:     PWM6CLKCON = 0b01000000;
  1144     00AB  3040               	movlw	64
  1145     00AC  00AE               	movwf	46	;volatile
  1146     00AD                     l1321:
  1147                           
  1148                           ;main.c: 134:     PWM6LDCON = 0x00;
  1149     00AD  01AF               	clrf	47	;volatile
  1150     00AE                     l1323:
  1151                           
  1152                           ;main.c: 135:     PWM6OFCON = 0x00;
  1153     00AE  01B0               	clrf	48	;volatile
  1154     00AF                     l1325:
  1155                           
  1156                           ;main.c: 136:     PWM6PHH = 0x00;
  1157     00AF  01A2               	clrf	34	;volatile
  1158     00B0                     l1327:
  1159                           
  1160                           ;main.c: 137:     PWM6PHL = 0x00;
  1161     00B0  01A1               	clrf	33	;volatile
  1162     00B1                     l1329:
  1163                           
  1164                           ;main.c: 138:     PWM6DCH = (2999 >> 8) & 0x00FF;
  1165     00B1  300B               	movlw	11
  1166     00B2  00A4               	movwf	36	;volatile
  1167     00B3                     l1331:
  1168                           
  1169                           ;main.c: 139:     PWM6DCL = 2999 & 0x00FF;
  1170     00B3  30B7               	movlw	183
  1171     00B4  00A3               	movwf	35	;volatile
  1172     00B5                     l1333:
  1173                           
  1174                           ;main.c: 140:     PWM6PRH = (39999 >> 8) & 0x00FF;
  1175     00B5  309C               	movlw	156
  1176     00B6  00A6               	movwf	38	;volatile
  1177     00B7                     l1335:
  1178                           
  1179                           ;main.c: 141:     PWM6PRL = 39999 & 0x00FF;
  1180     00B7  303F               	movlw	63
  1181     00B8  00A5               	movwf	37	;volatile
  1182     00B9                     l1337:
  1183                           
  1184                           ;main.c: 142:     PWM6OFH = 0x00;
  1185     00B9  01A8               	clrf	40	;volatile
  1186     00BA                     l1339:
  1187                           
  1188                           ;main.c: 143:     PWM6OFL = 0x00;
  1189     00BA  01A7               	clrf	39	;volatile
  1190     00BB                     l1341:
  1191                           
  1192                           ;main.c: 144:     PWM6TMRH = 0x00;
  1193     00BB  01AA               	clrf	42	;volatile
  1194     00BC                     l1343:
  1195                           
  1196                           ;main.c: 145:     PWM6TMRL = 0x00;
  1197     00BC  01A9               	clrf	41	;volatile
  1198     00BD                     l1345:
  1199                           
  1200                           ;main.c: 148:     RXPPS = 0b001101;
  1201     00BD  300D               	movlw	13
  1202     00BE  003C               	movlb	28	; select bank28
  1203     00BF  00BD               	movwf	61	;volatile
  1204     00C0                     l1347:
  1205                           
  1206                           ;main.c: 149:     RB4PPS = 0b100100;
  1207     00C0  3024               	movlw	36
  1208     00C1  003D               	movlb	29	; select bank29
  1209     00C2  009C               	movwf	28	;volatile
  1210     00C3                     l1349:
  1211                           
  1212                           ;main.c: 150:     TX1STA = 0b00100100;
  1213     00C3  3024               	movlw	36
  1214     00C4  0023               	movlb	3	; select bank3
  1215     00C5  009E               	movwf	30	;volatile
  1216     00C6                     l1351:
  1217                           
  1218                           ;main.c: 151:     RC1STA = 0b10010000;
  1219     00C6  3090               	movlw	144
  1220     00C7  009D               	movwf	29	;volatile
  1221     00C8                     l1353:
  1222                           
  1223                           ;main.c: 152:     BAUD1CON = 0b00001000;
  1224     00C8  3008               	movlw	8
  1225     00C9  009F               	movwf	31	;volatile
  1226     00CA                     l1355:
  1227                           
  1228                           ;main.c: 153:     SP1BRGL = 416 & 0x00FF;
  1229     00CA  30A0               	movlw	160
  1230     00CB  009B               	movwf	27	;volatile
  1231     00CC                     l1357:
  1232                           
  1233                           ;main.c: 154:     SP1BRGH = (416 >> 8) & 0x00FF;
  1234     00CC  3001               	movlw	1
  1235     00CD  009C               	movwf	28	;volatile
  1236     00CE                     l1359:
  1237                           
  1238                           ;main.c: 156:     PIR1bits.RCIF = 0;
  1239     00CE  0020               	movlb	0	; select bank0
  1240     00CF  1291               	bcf	17,5	;volatile
  1241     00D0                     l1361:
  1242                           
  1243                           ;main.c: 157:     PIE1bits.RCIE = 1;
  1244     00D0  0021               	movlb	1	; select bank1
  1245     00D1  1691               	bsf	17,5	;volatile
  1246     00D2                     l1363:
  1247                           
  1248                           ;main.c: 158:     INTCONbits.PEIE = 1;
  1249     00D2  170B               	bsf	11,6	;volatile
  1250     00D3                     l1365:
  1251                           
  1252                           ;main.c: 159:     INTCONbits.GIE = 1;
  1253     00D3  178B               	bsf	11,7	;volatile
  1254     00D4                     l1367:
  1255                           
  1256                           ;main.c: 162:     unsigned char str[] = "Please enter a string\r\n";
  1257     00D4  303A               	movlw	low main@F12352
  1258     00D5  0086               	movwf	6
  1259     00D6  3000               	movlw	high main@F12352
  1260     00D7  0087               	movwf	7
  1261     00D8  3020               	movlw	low main@str
  1262     00D9  0084               	movwf	4
  1263     00DA  3000               	movlw	high main@str
  1264     00DB  0085               	movwf	5
  1265     00DC  3018               	movlw	24
  1266     00DD  00F1               	movwf	??_main
  1267     00DE                     u280:
  1268     00DE  0016               	moviw fsr1++
  1269     00DF  001A               	movwi fsr0++
  1270     00E0  0BF1               	decfsz	??_main,f
  1271     00E1  28DE               	goto	u280
  1272     00E2                     l1369:
  1273                           
  1274                           ;main.c: 212:         for(int i = 0; str[i] != ((void*)0); i++){
  1275     00E2  0020               	movlb	0	; select bank0
  1276     00E3  01B8               	clrf	main@i
  1277     00E4  01B9               	clrf	main@i+1
  1278     00E5  28F3               	goto	l1375
  1279     00E6                     l1371:
  1280                           
  1281                           ;main.c: 213:             DataWrite(str[i]);
  1282     00E6  0838               	movf	main@i,w
  1283     00E7  3E20               	addlw	(low (main@str| 0))& (0+255)
  1284     00E8  0086               	movwf	6
  1285     00E9  0187               	clrf	7
  1286     00EA  0801               	movf	1,w
  1287     00EB  3181  2127  3180   	fcall	_DataWrite
  1288     00EE                     l1373:
  1289                           
  1290                           ;main.c: 214:         }
  1291     00EE  3001               	movlw	1
  1292     00EF  0020               	movlb	0	; select bank0
  1293     00F0  07B8               	addwf	main@i,f
  1294     00F1  3000               	movlw	0
  1295     00F2  3DB9               	addwfc	main@i+1,f
  1296     00F3                     l1375:
  1297     00F3  0838               	movf	main@i,w
  1298     00F4  3E20               	addlw	(low (main@str| 0))& (0+255)
  1299     00F5  0086               	movwf	6
  1300     00F6  0187               	clrf	7
  1301     00F7  0801               	movf	1,w
  1302     00F8  1D03               	btfss	3,2
  1303     00F9  28FB               	goto	u291
  1304     00FA  28FC               	goto	u290
  1305     00FB                     u291:
  1306     00FB  28E6               	goto	l1371
  1307     00FC                     u290:
  1308     00FC                     l1377:
  1309                           
  1310                           ;main.c: 215:         DataWrite(g_ReadData);
  1311     00FC  0852               	movf	_g_ReadData,w
  1312     00FD  3181  2127  3180   	fcall	_DataWrite
  1313     0100                     l1379:
  1314                           
  1315                           ;main.c: 216:         _delay((unsigned long)((100)*(32000000/4000.0)));
  1316     0100  3005               	movlw	5
  1317     0101  00F2               	movwf	??_main+1
  1318     0102  300F               	movlw	15
  1319     0103  00F1               	movwf	??_main
  1320     0104  30F1               	movlw	241
  1321     0105                     u347:
  1322     0105  0B89               	decfsz	9,f
  1323     0106  2905               	goto	u347
  1324     0107  0BF1               	decfsz	??_main,f
  1325     0108  2905               	goto	u347
  1326     0109  0BF2               	decfsz	??_main+1,f
  1327     010A  2905               	goto	u347
  1328     010B  0000               	nop
  1329     010C  28E2               	goto	l1369
  1330     010D  3180  281E         	ljmp	start
  1331     010F                     __end_of_main:
  1332                           
  1333                           	psect	text1
  1334     0127                     __ptext1:	
  1335 ;; *************** function _DataWrite *****************
  1336 ;; Defined at:
  1337 ;;		line 395 in file "main.c"
  1338 ;; Parameters:    Size  Location     Type
  1339 ;;  data            1    wreg     unsigned char 
  1340 ;; Auto vars:     Size  Location     Type
  1341 ;;  data            1    0[COMMON] unsigned char 
  1342 ;; Return value:  Size  Location     Type
  1343 ;;                  1    wreg      void 
  1344 ;; Registers used:
  1345 ;;		wreg
  1346 ;; Tracked objects:
  1347 ;;		On entry : 0/0
  1348 ;;		On exit  : 0/0
  1349 ;;		Unchanged: 0/0
  1350 ;; Data sizes:     COMMON   BANK0   BANK1   BANK2   BANK3   BANK4   BANK5   BANK6   BANK7   BANK8   BANK9  BANK10  BANK1
      +1  BANK12  BANK13  BANK14  BANK15  BANK16  BANK17  BANK18  BANK19  BANK20  BANK21  BANK22  BANK23  BANK24  BANK25
  1351 ;;      Params:         0       0       0       0       0       0       0       0       0       0       0       0       
      +0       0       0       0       0       0       0       0       0       0       0       0       0       0       0
  1352 ;;      Locals:         1       0       0       0       0       0       0       0       0       0       0       0       
      +0       0       0       0       0       0       0       0       0       0       0       0       0       0       0
  1353 ;;      Temps:          0       0       0       0       0       0       0       0       0       0       0       0       
      +0       0       0       0       0       0       0       0       0       0       0       0       0       0       0
  1354 ;;      Totals:         1       0       0       0       0       0       0       0       0       0       0       0       
      +0       0       0       0       0       0       0       0       0       0       0       0       0       0       0
  1355 ;;Total ram usage:        1 bytes
  1356 ;; Hardware stack levels used: 1
  1357 ;; Hardware stack levels required when called: 1
  1358 ;; This function calls:
  1359 ;;		Nothing
  1360 ;; This function is called by:
  1361 ;;		_main
  1362 ;;		_putch
  1363 ;; This function uses a non-reentrant model
  1364 ;;
  1365                           
  1366     0127                     _DataWrite:	
  1367                           ;psect for function _DataWrite
  1368                           
  1369                           
  1370                           ;incstack = 0
  1371                           ; Regs used in _DataWrite: [wreg]
  1372                           ;DataWrite@data stored from wreg
  1373     0127  00F0               	movwf	DataWrite@data
  1374     0128                     l1213:
  1375     0128                     l290:	
  1376                           ;main.c: 396:     while(!PIR1bits.TXIF);
  1377                           
  1378     0128  0020               	movlb	0	; select bank0
  1379     0129  1E11               	btfss	17,4	;volatile
  1380     012A  292C               	goto	u271
  1381     012B  292D               	goto	u270
  1382     012C                     u271:
  1383     012C  2928               	goto	l290
  1384     012D                     u270:
  1385     012D                     l292:
  1386                           
  1387                           ;main.c: 397:     PIR1bits.TXIF = 0;
  1388     012D  1211               	bcf	17,4	;volatile
  1389     012E                     l1215:
  1390                           
  1391                           ;main.c: 398:     TX1REG = data;
  1392     012E  0870               	movf	DataWrite@data,w
  1393     012F  0023               	movlb	3	; select bank3
  1394     0130  009A               	movwf	26	;volatile
  1395     0131                     l293:
  1396     0131  0008               	return
  1397     0132                     __end_of_DataWrite:
  1398                           
  1399                           	psect	intentry
  1400     0004                     __pintentry:	
  1401 ;; *************** function _ISR *****************
  1402 ;; Defined at:
  1403 ;;		line 410 in file "main.c"
  1404 ;; Parameters:    Size  Location     Type
  1405 ;;		None
  1406 ;; Auto vars:     Size  Location     Type
  1407 ;;		None
  1408 ;; Return value:  Size  Location     Type
  1409 ;;                  1    wreg      void 
  1410 ;; Registers used:
  1411 ;;		wreg, status,2
  1412 ;; Tracked objects:
  1413 ;;		On entry : 0/0
  1414 ;;		On exit  : 0/0
  1415 ;;		Unchanged: 0/0
  1416 ;; Data sizes:     COMMON   BANK0   BANK1   BANK2   BANK3   BANK4   BANK5   BANK6   BANK7   BANK8   BANK9  BANK10  BANK1
      +1  BANK12  BANK13  BANK14  BANK15  BANK16  BANK17  BANK18  BANK19  BANK20  BANK21  BANK22  BANK23  BANK24  BANK25
  1417 ;;      Params:         0       0       0       0       0       0       0       0       0       0       0       0       
      +0       0       0       0       0       0       0       0       0       0       0       0       0       0       0
  1418 ;;      Locals:         0       0       0       0       0       0       0       0       0       0       0       0       
      +0       0       0       0       0       0       0       0       0       0       0       0       0       0       0
  1419 ;;      Temps:          0       0       0       0       0       0       0       0       0       0       0       0       
      +0       0       0       0       0       0       0       0       0       0       0       0       0       0       0
  1420 ;;      Totals:         0       0       0       0       0       0       0       0       0       0       0       0       
      +0       0       0       0       0       0       0       0       0       0       0       0       0       0       0
  1421 ;;Total ram usage:        0 bytes
  1422 ;; Hardware stack levels used: 1
  1423 ;; This function calls:
  1424 ;;		Nothing
  1425 ;; This function is called by:
  1426 ;;		Interrupt level 1
  1427 ;; This function uses a non-reentrant model
  1428 ;;
  1429                           
  1430     0004                     _ISR:
  1431                           
  1432                           ;incstack = 0
  1433     0004  147E               	bsf	int$flags,0	;set compiler interrupt flag (level 1)
  1434                           
  1435                           ; Regs used in _ISR: [wreg+status,2]
  1436     0005  3180               	pagesel	$
  1437     0006                     i1l1385:
  1438                           
  1439                           ;main.c: 411:     if(PIR1bits.RCIF){
  1440     0006  0020               	movlb	0	; select bank0
  1441     0007  1E91               	btfss	17,5	;volatile
  1442     0008  280A               	goto	u30_21
  1443     0009  280B               	goto	u30_20
  1444     000A                     u30_21:
  1445     000A  281C               	goto	i1l307
  1446     000B                     u30_20:
  1447     000B                     i1l1387:
  1448                           
  1449                           ;main.c: 412:         PIR1bits.RCIF = 0;
  1450     000B  1291               	bcf	17,5	;volatile
  1451                           
  1452                           ;main.c: 413:         if(RC1STAbits.FERR || RC1STAbits.OERR){
  1453     000C  0023               	movlb	3	; select bank3
  1454     000D  191D               	btfsc	29,2	;volatile
  1455     000E  2810               	goto	u31_21
  1456     000F  2811               	goto	u31_20
  1457     0010                     u31_21:
  1458     0010  2815               	goto	i1l1391
  1459     0011                     u31_20:
  1460     0011                     i1l1389:
  1461     0011  1C9D               	btfss	29,1	;volatile
  1462     0012  2814               	goto	u32_21
  1463     0013  2815               	goto	u32_20
  1464     0014                     u32_21:
  1465     0014  2819               	goto	i1l1395
  1466     0015                     u32_20:
  1467     0015                     i1l1391:
  1468                           
  1469                           ;main.c: 414:             RC1STA = 0x00;
  1470     0015  019D               	clrf	29	;volatile
  1471     0016                     i1l1393:
  1472                           
  1473                           ;main.c: 415:             RC1STA = 0x90;
  1474     0016  3090               	movlw	144
  1475     0017  009D               	movwf	29	;volatile
  1476                           
  1477                           ;main.c: 416:         }
  1478     0018  281C               	goto	i1l307
  1479     0019                     i1l1395:
  1480                           
  1481                           ;main.c: 418:             g_ReadData = RC1REG;
  1482     0019  0819               	movf	25,w	;volatile
  1483     001A  0020               	movlb	0	; select bank0
  1484     001B  00D2               	movwf	_g_ReadData
  1485     001C                     i1l307:
  1486     001C  107E               	bcf	int$flags,0	;clear compiler interrupt flag (level 1)
  1487     001D  0009               	retfie
  1488     001E                     __end_of_ISR:
  1489     007E                     btemp	set	126	;btemp
  1490     007E                     int$flags	set	126
  1491     007E                     wtemp0	set	126
  1492                           
  1493                           	psect	idloc
  1494                           
  1495                           ;Config register IDLOC0 @ 0x8000
  1496                           ;	unspecified, using default values
  1497     8000                     	org	32768
  1498     8000  3FFF               	dw	16383
  1499                           
  1500                           ;Config register IDLOC1 @ 0x8001
  1501                           ;	unspecified, using default values
  1502     8001                     	org	32769
  1503     8001  3FFF               	dw	16383
  1504                           
  1505                           ;Config register IDLOC2 @ 0x8002
  1506                           ;	unspecified, using default values
  1507     8002                     	org	32770
  1508     8002  3FFF               	dw	16383
  1509                           
  1510                           ;Config register IDLOC3 @ 0x8003
  1511                           ;	unspecified, using default values
  1512     8003                     	org	32771
  1513     8003  3FFF               	dw	16383
  1514                           
  1515                           	psect	config
  1516                           
  1517                           ;Config register CONFIG1 @ 0x8007
  1518                           ;	Oscillator Selection Bits
  1519                           ;	FOSC = INTOSC, INTOSC oscillator: I/O function on CLKIN pin
  1520                           ;	Watchdog Timer Enable
  1521                           ;	WDTE = OFF, WDT disabled
  1522                           ;	Power-up Timer Enable
  1523                           ;	PWRTE = ON, PWRT enabled
  1524                           ;	MCLR Pin Function Select
  1525                           ;	MCLRE = ON, MCLR/VPP pin function is MCLR
  1526                           ;	Flash Program Memory Code Protection
  1527                           ;	CP = OFF, Program memory code protection is disabled
  1528                           ;	Brown-out Reset Enable
  1529                           ;	BOREN = ON, Brown-out Reset enabled
  1530                           ;	Clock Out Enable
  1531                           ;	CLKOUTEN = OFF, CLKOUT function is disabled. I/O or oscillator function on the CLKOUT 
      +                          pin
  1532                           ;	Internal/External Switchover Mode
  1533                           ;	IESO = OFF, Internal/External Switchover Mode is disabled
  1534                           ;	Fail-Safe Clock Monitor Enable
  1535                           ;	FCMEN = OFF, Fail-Safe Clock Monitor is disabled
  1536     8007                     	org	32775
  1537     8007  0FC4               	dw	4036
  1538                           
  1539                           ;Config register CONFIG2 @ 0x8008
  1540                           ;	Flash Memory Self-Write Protection
  1541                           ;	WRT = OFF, Write protection off
  1542                           ;	Peripheral Pin Select one-way control
  1543                           ;	PPS1WAY = ON, The PPSLOCK bit cannot be cleared once it is set by software
  1544                           ;	Zero-cross detect disable
  1545                           ;	ZCD = OFF, Zero-cross detect circuit is disabled at POR
  1546                           ;	Phase Lock Loop enable
  1547                           ;	PLLEN = ON, 4x PLL is always enabled
  1548                           ;	Stack Overflow/Underflow Reset Enable
  1549                           ;	STVREN = ON, Stack Overflow or Underflow will cause a Reset
  1550                           ;	Brown-out Reset Voltage Selection
  1551                           ;	BORV = HI, Brown-out Reset Voltage (Vbor), high trip point selected.
  1552                           ;	Low-Power Brown Out Reset
  1553                           ;	LPBOR = OFF, Low-Power BOR is disabled
  1554                           ;	Low-Voltage Programming Enable
  1555                           ;	LVP = OFF, High-voltage on MCLR/VPP must be used for programming
  1556     8008                     	org	32776
  1557     8008  1BFF               	dw	7167

Data Sizes:
    Strings     0
    Constant    0
    Data        24
    BSS         1
    Persistent  32
    Stack       0

Auto Spaces:
    Space          Size  Autos    Used
    COMMON           14      3       3
    BANK0            80     26      51
    BANK1            80      0       0
    BANK2            80      0       0
    BANK3            80      0       0
    BANK4            80      0       0
    BANK5            80      0       0
    BANK6            80      0       0
    BANK7            80      0       0
    BANK8            80      0       0
    BANK9            80      0       0
    BANK10           80      0       0
    BANK11           80      0       0
    BANK12           48      0       0
    BANK13           80      0       0
    BANK14           80      0       0
    BANK15           80      0       0
    BANK16           80      0       0
    BANK17           80      0       0
    BANK18           80      0       0
    BANK19           80      0       0
    BANK20           80      0       0
    BANK21           80      0       0
    BANK22           80      0       0
    BANK23           80      0       0
    BANK24           80      0       0
    BANK25           32      0       0

Pointer List with Targets:

    None.

Critical Paths under _main in COMMON

    _main->_DataWrite

Critical Paths under _ISR in COMMON

    None.

Critical Paths under _main in BANK0

    None.

Critical Paths under _ISR in BANK0

    None.

Critical Paths under _main in BANK1

    None.

Critical Paths under _ISR in BANK1

    None.

Critical Paths under _main in BANK2

    None.

Critical Paths under _ISR in BANK2

    None.

Critical Paths under _main in BANK3

    None.

Critical Paths under _ISR in BANK3

    None.

Critical Paths under _main in BANK4

    None.

Critical Paths under _ISR in BANK4

    None.

Critical Paths under _main in BANK5

    None.

Critical Paths under _ISR in BANK5

    None.

Critical Paths under _main in BANK6

    None.

Critical Paths under _ISR in BANK6

    None.

Critical Paths under _main in BANK7

    None.

Critical Paths under _ISR in BANK7

    None.

Critical Paths under _main in BANK8

    None.

Critical Paths under _ISR in BANK8

    None.

Critical Paths under _main in BANK9

    None.

Critical Paths under _ISR in BANK9

    None.

Critical Paths under _main in BANK10

    None.

Critical Paths under _ISR in BANK10

    None.

Critical Paths under _main in BANK11

    None.

Critical Paths under _ISR in BANK11

    None.

Critical Paths under _main in BANK12

    None.

Critical Paths under _ISR in BANK12

    None.

Critical Paths under _main in BANK13

    None.

Critical Paths under _ISR in BANK13

    None.

Critical Paths under _main in BANK14

    None.

Critical Paths under _ISR in BANK14

    None.

Critical Paths under _main in BANK15

    None.

Critical Paths under _ISR in BANK15

    None.

Critical Paths under _main in BANK16

    None.

Critical Paths under _ISR in BANK16

    None.

Critical Paths under _main in BANK17

    None.

Critical Paths under _ISR in BANK17

    None.

Critical Paths under _main in BANK18

    None.

Critical Paths under _ISR in BANK18

    None.

Critical Paths under _main in BANK19

    None.

Critical Paths under _ISR in BANK19

    None.

Critical Paths under _main in BANK20

    None.

Critical Paths under _ISR in BANK20

    None.

Critical Paths under _main in BANK21

    None.

Critical Paths under _ISR in BANK21

    None.

Critical Paths under _main in BANK22

    None.

Critical Paths under _ISR in BANK22

    None.

Critical Paths under _main in BANK23

    None.

Critical Paths under _ISR in BANK23

    None.

Critical Paths under _main in BANK24

    None.

Critical Paths under _ISR in BANK24

    None.

Critical Paths under _main in BANK25

    None.

Critical Paths under _ISR in BANK25

    None.

Call Graph Tables:

 ---------------------------------------------------------------------------------
 (Depth) Function   	        Calls       Base Space   Used Autos Params    Refs
 ---------------------------------------------------------------------------------
 (0) _main                                                28    28      0     115
                                              1 COMMON     2     2      0
                                              0 BANK0     26    26      0
                          _DataWrite
 ---------------------------------------------------------------------------------
 (1) _DataWrite                                            1     1      0      22
                                              0 COMMON     1     1      0
 ---------------------------------------------------------------------------------
 Estimated maximum stack depth 1
 ---------------------------------------------------------------------------------
 (Depth) Function   	        Calls       Base Space   Used Autos Params    Refs
 ---------------------------------------------------------------------------------
 (2) _ISR                                                  0     0      0       0
 ---------------------------------------------------------------------------------
 Estimated maximum stack depth 2
 ---------------------------------------------------------------------------------

 Call Graph Graphs:

 _main (ROOT)
   _DataWrite

 _ISR (ROOT)

 Address spaces:
Name               Size   Autos  Total    Cost      Usage
BIGRAM_1           3E0      0       0       0        0.0%
NULL                 0      0       0       0        0.0%
CODE                 0      0       0       0        0.0%
BIGRAM             3F0      0       0       1        0.0%
BITSFR0              0      0       0       1        0.0%
SFR0                 0      0       0       1        0.0%
BITCOMMON            E      0       0       2        0.0%
BITSFR1              0      0       0       2        0.0%
SFR1                 0      0       0       2        0.0%
COMMON               E      3       3       3       21.4%
BITSFR2              0      0       0       3        0.0%
SFR2                 0      0       0       3        0.0%
BITSFR3              0      0       0       4        0.0%
SFR3                 0      0       0       4        0.0%
STACK                0      0       0       4        0.0%
BANK0               50     1A      33       5       63.7%
BITSFR4              0      0       0       5        0.0%
SFR4                 0      0       0       5        0.0%
BITBANK0            50      0       0       6        0.0%
BITSFR5              0      0       0       6        0.0%
SFR5                 0      0       0       6        0.0%
BITBANK1            50      0       0       7        0.0%
BITSFR6              0      0       0       7        0.0%
SFR6                 0      0       0       7        0.0%
BANK1               50      0       0       8        0.0%
BITSFR7              0      0       0       8        0.0%
SFR7                 0      0       0       8        0.0%
BITBANK2            50      0       0       9        0.0%
BITSFR8              0      0       0       9        0.0%
SFR8                 0      0       0       9        0.0%
BANK2               50      0       0      10        0.0%
BITSFR9              0      0       0      10        0.0%
SFR9                 0      0       0      10        0.0%
BITBANK3            50      0       0      11        0.0%
BITSFR10             0      0       0      11        0.0%
SFR10                0      0       0      11        0.0%
BANK3               50      0       0      12        0.0%
BITSFR11             0      0       0      12        0.0%
SFR11                0      0       0      12        0.0%
BITSFR12             0      0       0      13        0.0%
SFR12                0      0       0      13        0.0%
ABS                  0      0      36      13        0.0%
BITBANK4            50      0       0      14        0.0%
BITSFR13             0      0       0      14        0.0%
SFR13                0      0       0      14        0.0%
BANK4               50      0       0      15        0.0%
BITSFR14             0      0       0      15        0.0%
SFR14                0      0       0      15        0.0%
BITBANK5            50      0       0      16        0.0%
BITSFR15             0      0       0      16        0.0%
SFR15                0      0       0      16        0.0%
BANK5               50      0       0      17        0.0%
BITSFR16             0      0       0      17        0.0%
SFR16                0      0       0      17        0.0%
BITBANK6            50      0       0      18        0.0%
BITSFR17             0      0       0      18        0.0%
SFR17                0      0       0      18        0.0%
BANK6               50      0       0      19        0.0%
BITSFR18             0      0       0      19        0.0%
SFR18                0      0       0      19        0.0%
BITBANK7            50      0       0      20        0.0%
BITSFR19             0      0       0      20        0.0%
SFR19                0      0       0      20        0.0%
BANK7               50      0       0      21        0.0%
BITSFR20             0      0       0      21        0.0%
SFR20                0      0       0      21        0.0%
BITBANK8            50      0       0      22        0.0%
BITSFR21             0      0       0      22        0.0%
SFR21                0      0       0      22        0.0%
BANK8               50      0       0      23        0.0%
BITSFR22             0      0       0      23        0.0%
SFR22                0      0       0      23        0.0%
BITBANK9            50      0       0      24        0.0%
BITSFR23             0      0       0      24        0.0%
SFR23                0      0       0      24        0.0%
BANK9               50      0       0      25        0.0%
BITSFR24             0      0       0      25        0.0%
SFR24                0      0       0      25        0.0%
BITBANK10           50      0       0      26        0.0%
BITSFR25             0      0       0      26        0.0%
SFR25                0      0       0      26        0.0%
BANK10              50      0       0      27        0.0%
BITSFR26             0      0       0      27        0.0%
SFR26                0      0       0      27        0.0%
BITBANK11           50      0       0      28        0.0%
BITSFR27             0      0       0      28        0.0%
SFR27                0      0       0      28        0.0%
BANK11              50      0       0      29        0.0%
BITSFR28             0      0       0      29        0.0%
SFR28                0      0       0      29        0.0%
BITSFR29             0      0       0      30        0.0%
SFR29                0      0       0      30        0.0%
DATA                 0      0      36      30        0.0%
BITBANK12           30      0       0      31        0.0%
BITSFR30             0      0       0      31        0.0%
SFR30                0      0       0      31        0.0%
BANK12              30      0       0      32        0.0%
BITSFR31             0      0       0      32        0.0%
SFR31                0      0       0      32        0.0%
BITBANK13           50      0       0      33        0.0%
BANK13              50      0       0      34        0.0%
BITBANK14           50      0       0      35        0.0%
BANK14              50      0       0      36        0.0%
BITBANK15           50      0       0      37        0.0%
BANK15              50      0       0      38        0.0%
BITBANK16           50      0       0      39        0.0%
BANK16              50      0       0      40        0.0%
BITBANK17           50      0       0      41        0.0%
BANK17              50      0       0      42        0.0%
BITBANK18           50      0       0      43        0.0%
BANK18              50      0       0      44        0.0%
BITBANK19           50      0       0      45        0.0%
BANK19              50      0       0      46        0.0%
BITBANK20           50      0       0      47        0.0%
BANK20              50      0       0      48        0.0%
BITBANK21           50      0       0      49        0.0%
BANK21              50      0       0      50        0.0%
BITBANK22           50      0       0      51        0.0%
BANK22              50      0       0      52        0.0%
BITBANK23           50      0       0      53        0.0%
BANK23              50      0       0      54        0.0%
BITBANK24           50      0       0      55        0.0%
BANK24              50      0       0      56        0.0%
BITBANK25           20      0       0      57        0.0%
BANK25              20      0       0      58        0.0%


Microchip Technology PIC Macro Assembler V2.40 build 20220703182018 
Symbol Table                                                                                   Wed Aug 16 12:46:22 2023

          DataWrite@data 0070                      l290 0128                      l292 012D  
                    l293 0131                      u270 012D                      u271 012C  
                    u280 00DE                      u337 009E                      u290 00FC  
                    u347 0105                      u291 00FB                      _ISR 0004  
                    wreg 0009                     ?_ISR 0070                     l1213 0128  
                   l1301 0091                     l1221 0034                     l1215 012E  
                   l1311 0098                     l1303 0093                     l1231 0045  
                   l1223 0036                     l1321 00AD                     l1313 0099  
                   l1305 0095                     l1241 0051                     l1233 0048  
                   l1225 0039                     l1331 00B3                     l1323 00AE  
                   l1315 00A5                     l1307 0096                     l1251 005E  
                   l1243 0053                     l1235 0049                     l1227 003C  
                   l1219 0031                     l1341 00BB                     l1333 00B5  
                   l1325 00AF                     l1317 00A8                     l1309 0097  
                   l1261 006A                     l1253 005F                     l1245 0056  
                   l1237 004A                     l1229 0043                     l1351 00C6  
                   l1343 00BC                     l1335 00B7                     l1327 00B0  
                   l1319 00AB                     l1271 0076                     l1263 006B  
                   l1255 0062                     l1247 0059                     l1239 004F  
                   l1361 00D0                     l1353 00C8                     l1345 00BD  
                   l1337 00B9                     l1329 00B1                     l1281 0080  
                   l1273 0077                     l1265 006E                     l1257 0065  
                   l1249 005C                     l1371 00E6                     l1363 00D2  
                   l1355 00CA                     l1347 00C0                     l1339 00BA  
                   l1291 008A                     l1283 0081                     l1275 007A  
                   l1267 0071                     l1259 0068                     l1373 00EE  
                   l1365 00D3                     l1357 00CC                     l1349 00C3  
                   l1293 008B                     l1285 0084                     l1277 007D  
                   l1269 0074                     l1375 00F3                     l1367 00D4  
                   l1359 00CE                     l1295 008C                     l1287 0087  
                   l1279 007F                     l1377 00FC                     l1369 00E2  
                   l1297 008D                     l1289 0089                     l1379 0100  
                   l1299 008F                     _LATA 010C                     _LATB 010D  
                   _LATC 010E                     _T2PR 0494                     _WPUA 020C  
                   _WPUB 020D                     _WPUC 020E                     _main 0031  
                   fsr0h 0005                     fsr1h 0007                     fsr0l 0004  
                   indf1 0001                     fsr1l 0006                     btemp 007E  
                   start 001E                    ??_ISR 0070                    ?_main 0070  
                  _T2CON 0495                    i1l307 001C                    u30_20 000B  
                  u30_21 000A                    u31_20 0011                    u31_21 0010  
                  u32_20 0015                    u32_21 0014                    _TRISA 008C  
                  _TRISB 008D                    _TRISC 008E                    _RXPPS 0E3D  
                  main@i 0038                    status 0003                    wtemp0 007E  
        __initialization 0020             __end_of_main 010F                   ??_main 0071  
                 _CCPR1H 0292                   _CCPR1L 0291                   _ANSELA 018C  
                 _ANSELB 018D                   _ANSELC 018E                   _RC1REG 0199  
                 _RA4PPS 0E94                   _RC0PPS 0EA0                   _RA5PPS 0E95  
                 _RC1PPS 0EA1                   _RC1STA 019D                   _RB4PPS 0E9C  
                 _RA6PPS 0E96                   _RC2PPS 0EA2                   _RA7PPS 0E97  
                 _RC3PPS 0EA3                   _RC4PPS 0EA4                   _RC5PPS 0EA5  
                 i1l1391 0015                   i1l1393 0016                   i1l1385 0006  
                 i1l1395 0019                   i1l1387 000B                   i1l1389 0011  
                 _OSCCON 009B                   _TX1REG 019A                   _TX1STA 019E  
           _CCPTMRS1bits 029E             _CCPTMRS2bits 029F        __end_of_DataWrite 0132  
__end_of__initialization 002D               _g_ReadData 0052           __pcstackCOMMON 0070  
           __pidataBANK0 010F           _OPTION_REGbits 0097               __pbssBANK0 0052  
           _T2CLKCONbits 0497               __pmaintext 0031               __pintentry 0004  
                _CCP1CON 0293                  _SP1BRGH 019C                  _SP1BRGL 019B  
                _PWM3DCH 0615                  _PWM3DCL 0614                  _PWM4DCH 0618  
                _PWM4DCL 0617                  _PWM5DCH 0D94                  _PWM5DCL 0D93  
                _PWM6DCH 0DA4                  _PWM3CON 0616                  _PWM6DCL 0DA3  
                _PWM4CON 0619                  _PWM5CON 0D9B                  _PWM9DCH 061B  
                _PWM6CON 0DAB                  _PWM9DCL 061A                  _PWM5OFH 0D98  
                _PWM5OFL 0D97                  _PWM5PHH 0D92                  _PWM6OFH 0DA8  
                _PWM9CON 061C                  _PWM5PHL 0D91                  _PWM6OFL 0DA7  
                _PWM6PHH 0DA2                  _PWM6PHL 0DA1                  _PWM5PRH 0D96  
                _PWM5PRL 0D95                  _PWM6PRH 0DA6                  _PWM6PRL 0DA5  
                __ptext1 0127                  main@str 0020     end_of_initialization 002D  
                init_ram 0132                  initloop 0133               main@F12352 003A  
              _PWM5LDCON 0D9F                _PWM6LDCON 0DAF                _PWM5OFCON 0DA0  
              _PWM6OFCON 0DB0                _PORTAbits 000C                _DataWrite 0127  
    start_initialization 0020              __end_of_ISR 001E               ?_DataWrite 0070  
          _PWM5LDCONbits 0D9F              __pdataBANK0 003A            _PWM6LDCONbits 0DAF  
              ___latbits 0003            __pcstackBANK0 0020                 _BAUD1CON 019F  
               _LATAbits 010C                 _LATCbits 010E              ??_DataWrite 0070  
               _PIE1bits 0091                 _PIR1bits 0011                 _PWM5TMRH 0D9A  
               _PWM5TMRL 0D99                 _PWM6TMRH 0DAA                 _PWM6TMRL 0DA9  
             _RC1STAbits 019D                 int$flags 007E               _INTCONbits 000B  
               intlevel1 0000               _PWM5CLKCON 0D9E               _PWM6CLKCON 0DAE  
